(dp1
S'item'
p2
(dp3
S'sortable'
p4
I2
sS'sql'
p5
S'TEXT'
p6
sS'length'
p7
I32768
sS'notnull'
p8
I00
sS'unique'
p9
I00
sS'type'
p10
S'text'
p11
ssS'produtos'
p12
(dp13
S'length'
p14
I32768
sS'unique'
p15
I00
sS'sortable'
p16
I2
sS'sql'
p17
S'TEXT'
p18
sS'notnull'
p19
I00
sS'type'
p20
S'text'
p21
ssS'id'
p22
(dp23
g14
I512
sg15
I00
sg16
I1
sg17
S'INTEGER PRIMARY KEY AUTOINCREMENT'
p24
sg19
I00
sg20
S'id'
p25
ss.