(dp1
S'output'
p2
S"<type 'exceptions.KeyError'> 'item'"
p3
sS'layer'
p4
S'/home/www-data/web2py/applications/easypay/views/default/tela_vendedor.html'
p5
sS'code'
p6
S'response.write(\'<head>\\n  <meta charset="UTF-8">\\n  <meta name="apple-mobile-web-app-capable" content="yes">  \\n  <meta name="viewport" content="width=device-width, initial-scale=1.0">  \\n  <link rel="stylesheet" href="http://maxcdn.bootstrapcdn.com/bootstrap/3.3.5/css/bootstrap.min.css">\\n  <link rel="apple-touch-icon" href="/easypay/static/images/logo_iphone.png">\\n  <meta name="apple-mobile-web-app-capable" content="yes">\\n\\n\\n</head>\\n\\n<body>\\n<div id="includednavbar"></div>\\n    <br><br><br><br><br>\\n<div class="container-fluid">\\n\\n<form class="form-horizontal" id="ajaxform">\\n<fieldset>\\n\\n<!-- Form Name -->\\n\\n<!-- Text input-->\\n\\n<div class="form-group">\\n<label class="col-md-4 control-label" for="quantidade">Produto</label>  \\n<div class="col-md-4">\\n<div class="form-group">\\n<select id="item_selecao" class="form-control" onChange=getSelection(this);>\\n    <option> Selecione Produto</option>\\n    \', escape=False)\nfor x in produto:\n    response.write(\'\\n    <option value="\', escape=False)\n    response.write(x[0])\n    response.write(\'" preco="\', escape=False)\n    response.write(x[2])\n    response.write(\'" figura="\', escape=False)\n    response.write(x[3])\n    response.write(\'">\', escape=False)\n    response.write(x[1])\n    response.write(\'</option>\\n    \', escape=False)\n    pass\nresponse.write(\'\\n  </optgroup>\\n</select>\\n</div>\\n    </div>\\n    </div>\\n\\n    \\n\\n<!-- Button -->\\n<div class="form-group">\\n  <label class="col-md-4 control-label" for="enviar"></label>\\n  <div class="col-md-4">\\n<!--      \\n    <button id="enviar" name="enviar" class="btn btn-primary" type="submit">Enviar</button>\\n-->\\n    <input id="enviar" name="enviar" class="btn btn-primary" type="submit" value="Enviar">\\n</div>\\n</div>\\n\\n</fieldset>\\n</form>\\n\\n\\n  <table class="table table-striped">\\n    <thead>\\n      <tr>\\n        <th>Item</th>\\n        <th>TxId</th>\\n        <th >Valor</th>\\n        <th >Parcelas</th>\\n        <th>Status</th>\\n        <th>Atividades</th>\\n      </tr>\\n    </thead>\\n    <tbody>\\n        \', escape=False)\nfor x in docs:\n    response.write(\'\\n        <tr>\\n            <td class="col-md-6">\', escape=False)\n    response.write(x[\'item\'])\n    response.write(\'</td>\\n            <td title="\', escape=False)\n    response.write(x[\'_id\'])\n    response.write(\'">\', escape=False)\n    response.write(x[\'_id\'][:9])\n    response.write(\'...</td>\\n            <td>\', escape=False)\n    response.write(x[\'valor\'])\n    response.write(\'</td>\\n            <td align="center">\', escape=False)\n    response.write(x[\'quantidade\'])\n    response.write(\'</td>\\n            \', escape=False)\n    if "Aprovado" in x[\'status_easypay\']:\n        response.write(\'\\n            <td><img id="\', escape=False)\n        response.write(x[\'_id\'])\n        response.write(\'" class="img-rounded" src="/easypay/static/images/ok.png" style="width:40px;height:40px"></td>\\n            \', escape=False)\n    elif "Rejeitado" in x[\'status_easypay\']:\n        response.write(\'\\n            <td><img id="\', escape=False)\n        response.write(x[\'_id\'])\n        response.write(\'" class="img-rounded" src="/easypay/static/images/rejeitar.png" style="width:40px;height:40px"></td>\\n            \', escape=False)\n    else:\n        response.write(\'\\n            <td><img id="\', escape=False)\n        response.write(x[\'_id\'])\n        response.write(\'" class="img-rounded" src="/easypay/static/images/pending.png" style="width:40px;height:40px"></td>\\n        \', escape=False)\n        pass\n    response.write(\'\\n            <td><button id="\', escape=False)\n    response.write(x[\'image_name\'])\n    response.write(\'" name="gerar_qrcode" class="btn btn-primary" type="submit" onclick=gera_qrcode(this.id);>Gerar C\\xc3\\xb3digo</button></td>\\n        </tr>\\n        \', escape=False)\n    pass\nresponse.write(\'\\n    </tbody>\\n  </table>\\n\\n</div>\\n  <script src="http://www.rcsousa.com.br:8888/js/pushstream.js" type="text/javascript" language="javascript" charset="utf-8"></script>\\n  <script src="https://ajax.googleapis.com/ajax/libs/jquery/1.12.0/jquery.min.js"></script>\\n  <script src="http://maxcdn.bootstrapcdn.com/bootstrap/3.3.5/js/bootstrap.min.js"></script>\\n  <script type="text/javascript" src="/easypay/static/js/links.js"></script>\\n    <script type="text/javascript" language="javascript" charset="utf-8" >\\n        $(function(){$("#includednavbar").load("navbar.html");});\\n        function gera_qrcode(image_id) {\\n            window.location.assign("/easypay/default/tela_qrcode_off.html?txid="+image_id);\\n        }\\n\\n    function messageReceived(text, id, channel) {\\n      obj_a = text.replace(/\\\'/g, \\\'"\\\');\\n      var lastChar = obj_a.substr(obj_a.length - 1);\\n        if (lastChar == "}") {\\n            obj_a = obj_a; }\\n        else {\\n            obj_a = obj_a+"}";\\n        }\\n      console.log(obj_a);\\n      //obj_b = obj_a.replace(/\\\\n/g, \\\'<br>\\\');\\n      //console.log(obj_b);\\n      obj = JSON.parse(obj_a);\\n      //document.getElementById("image").src = obj.image;\\n      var item = obj.item;\\n      var quantidade = obj.quantidade;\\n      var valor = obj.valor;\\n      var hash_ordem = obj.hash_ordem;\\n      var image_name = obj.image_name;\\n      $("tbody").prepend(\\\'<tr><td id="\\\'+item+\\\'_\\\'+hash_ordem+\\\'">\\\'+item+\\\'</td><td width="20%" id="\\\'+hash_ordem+\\\'_\\\'+hash_ordem+\\\'">\\\'+hash_ordem+\\\'</td><td id="\\\'+quantidade+\\\'_\\\'+hash_ordem+\\\'">\\\'+quantidade+\\\'</td><td id="\\\'+valor+\\\'_\\\'+hash_ordem+\\\'">\\\'+valor+\\\'</td><td ><img id="\\\'+hash_ordem+\\\'" class="img-rounded" src="http://www.rcsousa.com.br/easypay/static/images/pending.png" style="width:40px;height:40px"></td><td><button id="gerar_qrcode_\\\'+hash_ordem+\\\'" name="gerar_qrcode" class="btn btn-primary" type="submit">Gerar C\\xc3\\xb3digo</button></td></tr>\\\');\\n        window.location.assign("/easypay/default/tela_qrcode_off.html?txid="+image_name);\\n\\n\\n    };\\n\\n    var canal = "caixa-1";\\n    var pushstream = new PushStream({\\n        host: "www.rcsousa.com.br",\\n        port: 8443,\\n        useSSL:true,\\n      modes: "websocket"\\n    });\\n    pushstream.onmessage = messageReceived;\\n    pushstream.addChannel(canal);\\n    pushstream.connect();\\n        \\n    function getSelection(element) {     \\n           opcao = element.options[element.selectedIndex].text;\\n    }\\n\\n\\n    $("#ajaxform").submit(function(e)\\n    {\\n        //var postData = $(this).serializeArray();\\n        //var item = document.getElementById("item").value;\\n        var item = $(\\\'#item_selecao\\\').find(":selected").text();\\n        var quantidade = "1";\\n        var valor = $(\\\'#item_selecao\\\').find(":selected").attr("preco");\\n        var figura = $(\\\'#item_selecao\\\').find(":selected").attr("figura");\\n        //var quantidade = document.getElementById("quantidade").value;\\n        //var valor = document.getElementById("valor").value;\\n        var postData  = {\\n                        "ordem" :{ "item" : item, "quantidade" : quantidade, "valor" : valor, "figura": figura},\\n                        "canal" : "caixa-1" \\n                        };\\n\\n\\n        //confirm(JSON.stringify(postData));\\n        $( "form" )[ 0 ].reset();\\n        $.ajax(\\n            {\\n                // beforeSend: function(xhr) {\\n                //xhr.setRequestHeader(\\\'Access-Control-Allow-Origin\\\', \\\'*\\\');\\n                //}\\n                url : "http://www.rcsousa.com.br:9191/qrcode",\\n                type: "POST",\\n                data : JSON.stringify(postData),\\n                success:function(data, textStatus, jqXHR) \\n                    {\\n                        alert("Aguarde confirma\\xc3\\xa7\\xc3\\xa3o do Cliente");\\n                        //alert(sel.options[sel.selectedIndex].value);\\n                        //alert(opcao);\\n                    },\\n                error: function(jqXHR, textStatus, errorThrown) \\n                    {\\n                    }\\n                \\n                \\n            });\\n\\n\\n        e.preventDefault();\\t//STOP default action\\n    });\\n\\n\\n\\n</script>\\n    \\n</body>\\n\\n\\n</html>\\n\', escape=False)'
p7
sS'snapshot'
p8
(dp9
S'exception'
p10
(dp11
S'__hash__'
p12
S"<method-wrapper '__hash__' of exceptions.KeyError object>"
p13
sS'__setattr__'
p14
S"<method-wrapper '__setattr__' of exceptions.KeyError object>"
p15
sS'__reduce_ex__'
p16
S'<built-in method __reduce_ex__ of exceptions.KeyError object>'
p17
sS'__getslice__'
p18
S"<method-wrapper '__getslice__' of exceptions.KeyError object>"
p19
sS'__getitem__'
p20
S"<method-wrapper '__getitem__' of exceptions.KeyError object>"
p21
sS'__setstate__'
p22
S'<built-in method __setstate__ of exceptions.KeyError object>'
p23
sS'args'
p24
S"('item',)"
p25
sS'__reduce__'
p26
S'<built-in method __reduce__ of exceptions.KeyError object>'
p27
sS'__str__'
p28
S"<method-wrapper '__str__' of exceptions.KeyError object>"
p29
sS'__format__'
p30
S'<built-in method __format__ of exceptions.KeyError object>'
p31
sS'__getattribute__'
p32
S"<method-wrapper '__getattribute__' of exceptions.KeyError object>"
p33
sS'__class__'
p34
S"<type 'exceptions.KeyError'>"
p35
sS'__unicode__'
p36
S'<built-in method __unicode__ of exceptions.KeyError object>'
p37
sS'__delattr__'
p38
S"<method-wrapper '__delattr__' of exceptions.KeyError object>"
p39
sS'__subclasshook__'
p40
S'<built-in method __subclasshook__ of type object>'
p41
sS'__repr__'
p42
S"<method-wrapper '__repr__' of exceptions.KeyError object>"
p43
sS'__dict__'
p44
S'{}'
p45
sS'__sizeof__'
p46
S'<built-in method __sizeof__ of exceptions.KeyError object>'
p47
sS'__doc__'
p48
S"'Mapping key not found.'"
p49
sS'__init__'
p50
S"<method-wrapper '__init__' of exceptions.KeyError object>"
p51
sS'__new__'
p52
S'<built-in method __new__ of type object>'
p53
ssS'evalue'
p54
S"'item'"
p55
sS'request'
p56
cgluon.html
XML_unpickle
p57
(S's\x1fI\x00\x00<div><table><tr><td style="font-weight:bold;vertical-align:top;">ajax</td><td style="vertical-align:top;">:</td><td><div>False</div></td></tr><tr><td style="font-weight:bold;vertical-align:top;">application</td><td style="vertical-align:top;">:</td><td><div>easypay</div></td></tr><tr><td style="font-weight:bold;vertical-align:top;">args</td><td style="vertical-align:top;">:</td><td><div><table></table></div></td></tr><tr><td style="font-weight:bold;vertical-align:top;">cid</td><td style="vertical-align:top;">:</td><td><div>None</div></td></tr><tr><td style="font-weight:bold;vertical-align:top;">client</td><td style="vertical-align:top;">:</td><td><div>201.83.52.183</div></td></tr><tr><td style="font-weight:bold;vertical-align:top;">controller</td><td style="vertical-align:top;">:</td><td><div>default</div></td></tr><tr><td style="font-weight:bold;vertical-align:top;">cookies</td><td style="vertical-align:top;">:</td><td><div><table><tr><td style="font-weight:bold;vertical-align:top;">session_id_easypay</td><td style="vertical-align:top;">:</td><td><div>201.83.52.183-23289418-8368-488d-abe8-cfa6c2fcca29<table><tr><td style="font-weight:bold;vertical-align:top;">comment</td><td style="vertical-align:top;">:</td><td><div></div></td></tr><tr><td style="font-weight:bold;vertical-align:top;">domain</td><td style="vertical-align:top;">:</td><td><div></div></td></tr><tr><td style="font-weight:bold;vertical-align:top;">expires</td><td style="vertical-align:top;">:</td><td><div></div></td></tr><tr><td style="font-weight:bold;vertical-align:top;">httponly</td><td style="vertical-align:top;">:</td><td><div></div></td></tr><tr><td style="font-weight:bold;vertical-align:top;">max-age</td><td style="vertical-align:top;">:</td><td><div></div></td></tr><tr><td style="font-weight:bold;vertical-align:top;">path</td><td style="vertical-align:top;">:</td><td><div></div></td></tr><tr><td style="font-weight:bold;vertical-align:top;">secure</td><td style="vertical-align:top;">:</td><td><div></div></td></tr><tr><td style="font-weight:bold;vertical-align:top;">version</td><td style="vertical-align:top;">:</td><td><div></div></td></tr></table></div></td></tr></table></div></td></tr><tr><td style="font-weight:bold;vertical-align:top;">env</td><td style="vertical-align:top;">:</td><td><div><table><tr><td style="font-weight:bold;vertical-align:top;">CONTENT_LENGTH</td><td style="vertical-align:top;">:</td><td><div></div></td></tr><tr><td style="font-weight:bold;vertical-align:top;">CONTENT_TYPE</td><td style="vertical-align:top;">:</td><td><div></div></td></tr><tr><td style="font-weight:bold;vertical-align:top;">DOCUMENT_ROOT</td><td style="vertical-align:top;">:</td><td><div>/usr/local/nginx/html</div></td></tr><tr><td style="font-weight:bold;vertical-align:top;">HTTP_ACCEPT</td><td style="vertical-align:top;">:</td><td><div>text/html,application/xhtml+xml,application/xml;q=0.9,*/*;q=0.8</div></td></tr><tr><td style="font-weight:bold;vertical-align:top;">HTTP_ACCEPT_ENCODING</td><td style="vertical-align:top;">:</td><td><div>gzip, deflate</div></td></tr><tr><td style="font-weight:bold;vertical-align:top;">HTTP_ACCEPT_LANGUAGE</td><td style="vertical-align:top;">:</td><td><div>pt-BR,pt;q=0.8,en-US;q=0.5,en;q=0.3</div></td></tr><tr><td style="font-weight:bold;vertical-align:top;">HTTP_CONNECTION</td><td style="vertical-align:top;">:</td><td><div>keep-alive</div></td></tr><tr><td style="font-weight:bold;vertical-align:top;">HTTP_COOKIE</td><td style="vertical-align:top;">:</td><td><div>session_id_easypay=201.83.52.183-23289418-8368-488d-abe8-cfa6c2fcca29</div></td></tr><tr><td style="font-weight:bold;vertical-align:top;">HTTP_HOST</td><td style="vertical-align:top;">:</td><td><div>easypay.rcsousa.com.br</div></td></tr><tr><td style="font-weight:bold;vertical-align:top;">HTTP_REFERER</td><td style="vertical-align:top;">:</td><td><div>http://easypay.rcsousa.com.br/easypay/default/lista_de_produtos.html</div></td></tr><tr><td style="font-weight:bold;vertical-align:top;">HTTP_USER_AGENT</td><td style="vertical-align:top;">:</td><td><div>Mozilla/5.0 (Macintosh; Intel Mac OS X 10.11; rv:45.0) Gecko/20100101 Firefox/45.0</div></td></tr><tr><td style="font-weight:bold;vertical-align:top;">PATH_INFO</td><td style="vertical-align:top;">:</td><td><div>/easypay/default/tela_vendedor.html</div></td></tr><tr><td style="font-weight:bold;vertical-align:top;">QUERY_STRING</td><td style="vertical-align:top;">:</td><td><div></div></td></tr><tr><td style="font-weight:bold;vertical-align:top;">REMOTE_ADDR</td><td style="vertical-align:top;">:</td><td><div>201.83.52.183</div></td></tr><tr><td style="font-weight:bold;vertical-align:top;">REMOTE_PORT</td><td style="vertical-align:top;">:</td><td><div>57109</div></td></tr><tr><td style="font-weight:bold;vertical-align:top;">REQUEST_METHOD</td><td style="vertical-align:top;">:</td><td><div>GET</div></td></tr><tr><td style="font-weight:bold;vertical-align:top;">REQUEST_URI</td><td style="vertical-align:top;">:</td><td><div>/easypay/default/tela_vendedor.html</div></td></tr><tr><td style="font-weight:bold;vertical-align:top;">SERVER_NAME</td><td style="vertical-align:top;">:</td><td><div>dev-rcsousa-04</div></td></tr><tr><td style="font-weight:bold;vertical-align:top;">SERVER_PORT</td><td style="vertical-align:top;">:</td><td><div>80</div></td></tr><tr><td style="font-weight:bold;vertical-align:top;">SERVER_PROTOCOL</td><td style="vertical-align:top;">:</td><td><div>HTTP/1.1</div></td></tr><tr><td style="font-weight:bold;vertical-align:top;">SERVER_SOFTWARE</td><td style="vertical-align:top;">:</td><td><div>nginx/1.8.1</div></td></tr><tr><td style="font-weight:bold;vertical-align:top;">UWSGI_SCHEME</td><td style="vertical-align:top;">:</td><td><div>http</div></td></tr><tr><td style="font-weight:bold;vertical-align:top;">app_folders</td><td style="vertical-align:top;">:</td><td><div>set([&#x27;/home/www-data/web2py/applications/welcome/&#x27;, &#x27;/home/www-data/web2py/applications/easypay/&#x27;, &#x27;/home/www-data/web2py/applications/admin/&#x27;])</div></td></tr><tr><td style="font-weight:bold;vertical-align:top;">applications_parent</td><td style="vertical-align:top;">:</td><td><div>/home/www-data/web2py</div></td></tr><tr><td style="font-weight:bold;vertical-align:top;">content_length</td><td style="vertical-align:top;">:</td><td><div></div></td></tr><tr><td style="font-weight:bold;vertical-align:top;">content_type</td><td style="vertical-align:top;">:</td><td><div></div></td></tr><tr><td style="font-weight:bold;vertical-align:top;">db_sessions</td><td style="vertical-align:top;">:</td><td><div>set([])</div></td></tr><tr><td style="font-weight:bold;vertical-align:top;">debugging</td><td style="vertical-align:top;">:</td><td><div>False</div></td></tr><tr><td style="font-weight:bold;vertical-align:top;">document_root</td><td style="vertical-align:top;">:</td><td><div>/usr/local/nginx/html</div></td></tr><tr><td style="font-weight:bold;vertical-align:top;">gluon_parent</td><td style="vertical-align:top;">:</td><td><div>/home/www-data/web2py</div></td></tr><tr><td style="font-weight:bold;vertical-align:top;">http_accept</td><td style="vertical-align:top;">:</td><td><div>text/html,application/xhtml+xml,application/xml;q=0.9,*/*;q=0.8</div></td></tr><tr><td style="font-weight:bold;vertical-align:top;">http_accept_encoding</td><td style="vertical-align:top;">:</td><td><div>gzip, deflate</div></td></tr><tr><td style="font-weight:bold;vertical-align:top;">http_accept_language</td><td style="vertical-align:top;">:</td><td><div>pt-BR,pt;q=0.8,en-US;q=0.5,en;q=0.3</div></td></tr><tr><td style="font-weight:bold;vertical-align:top;">http_connection</td><td style="vertical-align:top;">:</td><td><div>keep-alive</div></td></tr><tr><td style="font-weight:bold;vertical-align:top;">http_cookie</td><td style="vertical-align:top;">:</td><td><div>session_id_easypay=201.83.52.183-23289418-8368-488d-abe8-cfa6c2fcca29</div></td></tr><tr><td style="font-weight:bold;vertical-align:top;">http_host</td><td style="vertical-align:top;">:</td><td><div>easypay.rcsousa.com.br</div></td></tr><tr><td style="font-weight:bold;vertical-align:top;">http_referer</td><td style="vertical-align:top;">:</td><td><div>http://easypay.rcsousa.com.br/easypay/default/lista_de_produtos.html</div></td></tr><tr><td style="font-weight:bold;vertical-align:top;">http_user_agent</td><td style="vertical-align:top;">:</td><td><div>Mozilla/5.0 (Macintosh; Intel Mac OS X 10.11; rv:45.0) Gecko/20100101 Firefox/45.0</div></td></tr><tr><td style="font-weight:bold;vertical-align:top;">is_jython</td><td style="vertical-align:top;">:</td><td><div>False</div></td></tr><tr><td style="font-weight:bold;vertical-align:top;">is_pypy</td><td style="vertical-align:top;">:</td><td><div>False</div></td></tr><tr><td style="font-weight:bold;vertical-align:top;">is_source</td><td style="vertical-align:top;">:</td><td><div>True</div></td></tr><tr><td style="font-weight:bold;vertical-align:top;">local_hosts</td><td style="vertical-align:top;">:</td><td><div><table><tr><td><div>::1</div></td></tr><tr><td><div>localhost</div></td></tr><tr><td><div>::ffff:127.0.0.1</div></td></tr><tr><td><div>127.0.0.1</div></td></tr><tr><td><div>dev-rcsousa-04</div></td></tr></table></div></td></tr><tr><td style="font-weight:bold;vertical-align:top;">path_info</td><td style="vertical-align:top;">:</td><td><div>/easypay/default/tela_vendedor.html</div></td></tr><tr><td style="font-weight:bold;vertical-align:top;">query_string</td><td style="vertical-align:top;">:</td><td><div></div></td></tr><tr><td style="font-weight:bold;vertical-align:top;">remote_addr</td><td style="vertical-align:top;">:</td><td><div>201.83.52.183</div></td></tr><tr><td style="font-weight:bold;vertical-align:top;">remote_port</td><td style="vertical-align:top;">:</td><td><div>57109</div></td></tr><tr><td style="font-weight:bold;vertical-align:top;">request_method</td><td style="vertical-align:top;">:</td><td><div>GET</div></td></tr><tr><td style="font-weight:bold;vertical-align:top;">request_uri</td><td style="vertical-align:top;">:</td><td><div>/easypay/default/tela_vendedor.html</div></td></tr><tr><td style="font-weight:bold;vertical-align:top;">server_name</td><td style="vertical-align:top;">:</td><td><div>dev-rcsousa-04</div></td></tr><tr><td style="font-weight:bold;vertical-align:top;">server_port</td><td style="vertical-align:top;">:</td><td><div>80</div></td></tr><tr><td style="font-weight:bold;vertical-align:top;">server_protocol</td><td style="vertical-align:top;">:</td><td><div>HTTP/1.1</div></td></tr><tr><td style="font-weight:bold;vertical-align:top;">server_software</td><td style="vertical-align:top;">:</td><td><div>nginx/1.8.1</div></td></tr><tr><td style="font-weight:bold;vertical-align:top;">uwsgi.node</td><td style="vertical-align:top;">:</td><td><div>dev-rcsousa-04</div></td></tr><tr><td style="font-weight:bold;vertical-align:top;">uwsgi.version</td><td style="vertical-align:top;">:</td><td><div>2.0.10</div></td></tr><tr><td style="font-weight:bold;vertical-align:top;">uwsgi_node</td><td style="vertical-align:top;">:</td><td><div>dev-rcsousa-04</div></td></tr><tr><td style="font-weight:bold;vertical-align:top;">uwsgi_scheme</td><td style="vertical-align:top;">:</td><td><div>http</div></td></tr><tr><td style="font-weight:bold;vertical-align:top;">uwsgi_version</td><td style="vertical-align:top;">:</td><td><div>2.0.10</div></td></tr><tr><td style="font-weight:bold;vertical-align:top;">web2py_path</td><td style="vertical-align:top;">:</td><td><div>/home/www-data/web2py</div></td></tr><tr><td style="font-weight:bold;vertical-align:top;">web2py_version</td><td style="vertical-align:top;">:</td><td><div>2.9.12-stable+timestamp.2015.01.17.06.11.03</div></td></tr><tr><td style="font-weight:bold;vertical-align:top;">wsgi.errors</td><td style="vertical-align:top;">:</td><td><div>&lt;open file &#x27;wsgi_errors&#x27;, mode &#x27;w&#x27; at 0x7f8e05277ae0&gt;</div></td></tr><tr><td style="font-weight:bold;vertical-align:top;">wsgi.file_wrapper</td><td style="vertical-align:top;">:</td><td><div>&lt;built-in function uwsgi_sendfile&gt;</div></td></tr><tr><td style="font-weight:bold;vertical-align:top;">wsgi.input</td><td style="vertical-align:top;">:</td><td><div>&lt;uwsgi._Input object at 0x7f8e0d1abe58&gt;</div></td></tr><tr><td style="font-weight:bold;vertical-align:top;">wsgi.multiprocess</td><td style="vertical-align:top;">:</td><td><div>True</div></td></tr><tr><td style="font-weight:bold;vertical-align:top;">wsgi.multithread</td><td style="vertical-align:top;">:</td><td><div>False</div></td></tr><tr><td style="font-weight:bold;vertical-align:top;">wsgi.run_once</td><td style="vertical-align:top;">:</td><td><div>False</div></td></tr><tr><td style="font-weight:bold;vertical-align:top;">wsgi.url_scheme</td><td style="vertical-align:top;">:</td><td><div>http</div></td></tr><tr><td style="font-weight:bold;vertical-align:top;">wsgi.version</td><td style="vertical-align:top;">:</td><td><div><table><tr><td><div>1</div></td></tr><tr><td><div>0</div></td></tr></table></div></td></tr><tr><td style="font-weight:bold;vertical-align:top;">wsgi_errors</td><td style="vertical-align:top;">:</td><td><div>&lt;open file &#x27;wsgi_errors&#x27;, mode &#x27;w&#x27; at 0x7f8e05277ae0&gt;</div></td></tr><tr><td style="font-weight:bold;vertical-align:top;">wsgi_file_wrapper</td><td style="vertical-align:top;">:</td><td><div>&lt;built-in function uwsgi_sendfile&gt;</div></td></tr><tr><td style="font-weight:bold;vertical-align:top;">wsgi_input</td><td style="vertical-align:top;">:</td><td><div>&lt;uwsgi._Input object at 0x7f8e0d1abe58&gt;</div></td></tr><tr><td style="font-weight:bold;vertical-align:top;">wsgi_multiprocess</td><td style="vertical-align:top;">:</td><td><div>True</div></td></tr><tr><td style="font-weight:bold;vertical-align:top;">wsgi_multithread</td><td style="vertical-align:top;">:</td><td><div>False</div></td></tr><tr><td style="font-weight:bold;vertical-align:top;">wsgi_run_once</td><td style="vertical-align:top;">:</td><td><div>False</div></td></tr><tr><td style="font-weight:bold;vertical-align:top;">wsgi_url_scheme</td><td style="vertical-align:top;">:</td><td><div>http</div></td></tr><tr><td style="font-weight:bold;vertical-align:top;">wsgi_version</td><td style="vertical-align:top;">:</td><td><div><table><tr><td><div>1</div></td></tr><tr><td><div>0</div></td></tr></table></div></td></tr></table></div></td></tr><tr><td style="font-weight:bold;vertical-align:top;">extension</td><td style="vertical-align:top;">:</td><td><div>html</div></td></tr><tr><td style="font-weight:bold;vertical-align:top;">folder</td><td style="vertical-align:top;">:</td><td><div>/home/www-data/web2py/applications/easypay/</div></td></tr><tr><td style="font-weight:bold;vertical-align:top;">function</td><td style="vertical-align:top;">:</td><td><div>tela_vendedor</div></td></tr><tr><td style="font-weight:bold;vertical-align:top;">global_settings</td><td style="vertical-align:top;">:</td><td><div><table><tr><td style="font-weight:bold;vertical-align:top;">app_folders</td><td style="vertical-align:top;">:</td><td><div>set([&#x27;/home/www-data/web2py/applications/welcome/&#x27;, &#x27;/home/www-data/web2py/applications/easypay/&#x27;, &#x27;/home/www-data/web2py/applications/admin/&#x27;])</div></td></tr><tr><td style="font-weight:bold;vertical-align:top;">applications_parent</td><td style="vertical-align:top;">:</td><td><div>/home/www-data/web2py</div></td></tr><tr><td style="font-weight:bold;vertical-align:top;">db_sessions</td><td style="vertical-align:top;">:</td><td><div>set([])</div></td></tr><tr><td style="font-weight:bold;vertical-align:top;">debugging</td><td style="vertical-align:top;">:</td><td><div>False</div></td></tr><tr><td style="font-weight:bold;vertical-align:top;">gluon_parent</td><td style="vertical-align:top;">:</td><td><div>/home/www-data/web2py</div></td></tr><tr><td style="font-weight:bold;vertical-align:top;">is_jython</td><td style="vertical-align:top;">:</td><td><div>False</div></td></tr><tr><td style="font-weight:bold;vertical-align:top;">is_pypy</td><td style="vertical-align:top;">:</td><td><div>False</div></td></tr><tr><td style="font-weight:bold;vertical-align:top;">is_source</td><td style="vertical-align:top;">:</td><td><div>True</div></td></tr><tr><td style="font-weight:bold;vertical-align:top;">local_hosts</td><td style="vertical-align:top;">:</td><td><div><table><tr><td><div>::1</div></td></tr><tr><td><div>localhost</div></td></tr><tr><td><div>::ffff:127.0.0.1</div></td></tr><tr><td><div>127.0.0.1</div></td></tr><tr><td><div>dev-rcsousa-04</div></td></tr></table></div></td></tr><tr><td style="font-weight:bold;vertical-align:top;">web2py_version</td><td style="vertical-align:top;">:</td><td><div>2.9.12-stable+timestamp.2015.01.17.06.11.03</div></td></tr></table></div></td></tr><tr><td style="font-weight:bold;vertical-align:top;">is_https</td><td style="vertical-align:top;">:</td><td><div>False</div></td></tr><tr><td style="font-weight:bold;vertical-align:top;">is_local</td><td style="vertical-align:top;">:</td><td><div>False</div></td></tr><tr><td style="font-weight:bold;vertical-align:top;">is_restful</td><td style="vertical-align:top;">:</td><td><div>False</div></td></tr><tr><td style="font-weight:bold;vertical-align:top;">is_sheduler</td><td style="vertical-align:top;">:</td><td><div>None</div></td></tr><tr><td style="font-weight:bold;vertical-align:top;">is_shell</td><td style="vertical-align:top;">:</td><td><div>None</div></td></tr><tr><td style="font-weight:bold;vertical-align:top;">now</td><td style="vertical-align:top;">:</td><td><div>datetime.datetime(2016, 4, 21, 18, 9, 2, 670570)</div></td></tr><tr><td style="font-weight:bold;vertical-align:top;">raw_args</td><td style="vertical-align:top;">:</td><td><div></div></td></tr><tr><td style="font-weight:bold;vertical-align:top;">raw_extension</td><td style="vertical-align:top;">:</td><td><div>html</div></td></tr><tr><td style="font-weight:bold;vertical-align:top;">url</td><td style="vertical-align:top;">:</td><td><div>/easypay/default/tela_vendedor.html</div></td></tr><tr><td style="font-weight:bold;vertical-align:top;">utcnow</td><td style="vertical-align:top;">:</td><td><div>datetime.datetime(2016, 4, 21, 22, 9, 2, 670609)</div></td></tr><tr><td style="font-weight:bold;vertical-align:top;">uuid</td><td style="vertical-align:top;">:</td><td><div>easypay/201.83.52.183.2016-04-21.18-09-02.89952717-7359-4b21-b4c6-a329277817fb</div></td></tr><tr><td style="font-weight:bold;vertical-align:top;">wsgi</td><td style="vertical-align:top;">:</td><td><div>&lt;gluon.main.LazyWSGI object at 0x7f8e01500b50&gt;</div></td></tr></table></div>'
tRp58
sS'frames'
p59
(lp60
(dp61
S'file'
p62
S'/home/www-data/web2py/gluon/restricted.py'
p63
sS'dump'
p64
(dp65
S'environment'
p66
S"{'A': <class 'gluon.html.A'>, 'ANY_OF': <class 'gluon.validators.ANY_OF'>, 'ASSIGNJS': <function ASSIGNJS>, 'Auth': <class 'gluon.tools.Auth'>, 'B': <class 'gluon.html.B'>, 'BEAUTIFY': <class 'gluon.html.BEAUTIFY'>, 'BODY': <class 'gluon.html.BODY'>, 'BR': <class 'gluon.html.BR'>, 'BUTTON': <class 'gluon.html.BUTTON'>, 'CAT': <class 'gluon.html.CAT'>, ...}"
p67
sS'ccode'
p68
S'<code object <module> at 0x7f8e023c52b0, file "/...asypay/views/default/tela_vendedor.html", line 1>'
p69
ssS'lnum'
p70
I224
sS'lines'
p71
(dp72
I224
S'        exec ccode in environment'
p73
sI225
S'    except HTTP:'
p74
sI226
S'        raise'
p75
sI227
S'    except RestrictedError:'
p76
sI228
S'        # do not encapsulate (obfuscate) the original RestrictedError'
p77
sI219
S'    try:'
p78
sI220
S'        if isinstance(code, types.CodeType):'
p79
sI221
S'            ccode = code'
p80
sI222
S'        else:'
p81
sI223
S'            ccode = compile2(code, layer)'
p82
ssS'call'
p83
S'(code=\'response.write(\\\'<head>\\\\n  <meta charset="UTF-8">...pt>\\\\n    \\\\n</body>\\\\n\\\\n\\\\n</html>\\\\n\\\', escape=False)\', environment={\'A\': <class \'gluon.html.A\'>, \'ANY_OF\': <class \'gluon.validators.ANY_OF\'>, \'ASSIGNJS\': <function ASSIGNJS>, \'Auth\': <class \'gluon.tools.Auth\'>, \'B\': <class \'gluon.html.B\'>, \'BEAUTIFY\': <class \'gluon.html.BEAUTIFY\'>, \'BODY\': <class \'gluon.html.BODY\'>, \'BR\': <class \'gluon.html.BR\'>, \'BUTTON\': <class \'gluon.html.BUTTON\'>, \'CAT\': <class \'gluon.html.CAT\'>, ...}, layer=\'/home/www-data/web2py/applications/easypay/views/default/tela_vendedor.html\')'
p84
sS'func'
p85
S'restricted'
p86
sa(dp87
g62
S'/home/www-data/web2py/applications/easypay/views/default/tela_vendedor.html'
p88
sg64
(dp89
S'form'
p90
S'undefined'
p91
sS'builtinid'
p92
S'<built-in function id>'
p93
ssg70
I16
sg71
(dp94
I7
S'    response.write(\'" figura="\', escape=False)'
p95
sI8
S'    response.write(x[3])'
p96
sI9
S'    response.write(\'">\', escape=False)'
p97
sI10
S'    response.write(x[1])'
p98
sI11
S"    response.write('</option>\\n    ', escape=False)"
p99
sI12
S'    pass'
p100
sI13
S'response.write(\'\\n  </optgroup>\\n</select>\\n</div>\\n    </div>\\n    </div>\\n\\n    \\n\\n<!-- Button -->\\n<div class="form-group">\\n  <label class="col-md-4 control-label" for="enviar"></label>\\n  <div class="col-md-4">\\n<!--      \\n    <button id="enviar" name="enviar" class="btn btn-primary" type="submit">Enviar</button>\\n-->\\n    <input id="enviar" name="enviar" class="btn btn-primary" type="submit" value="Enviar">\\n</div>\\n</div>\\n\\n</fieldset>\\n</form>\\n\\n\\n  <table class="table table-striped">\\n    <thead>\\n      <tr>\\n        <th>Item</th>\\n        <th>TxId</th>\\n        <th >Valor</th>\\n        <th >Parcelas</th>\\n        <th>Status</th>\\n        <th>Atividades</th>\\n      </tr>\\n    </thead>\\n    <tbody>\\n        \', escape=False)'
p101
sI14
S'for x in docs:'
p102
sI15
S'    response.write(\'\\n        <tr>\\n            <td class="col-md-6">\', escape=False)'
p103
sI16
S"    response.write(x['item'])"
p104
sI17
S'    response.write(\'</td>\\n            <td title="\', escape=False)'
p105
sI18
S"    response.write(x['_id'])"
p106
sI19
S'    response.write(\'">\', escape=False)'
p107
sI20
S"    response.write(x['_id'][:9])"
p108
sI21
S"    response.write('...</td>\\n            <td>', escape=False)"
p109
sI22
S"    response.write(x['valor'])"
p110
sI23
S'    response.write(\'</td>\\n            <td align="center">\', escape=False)'
p111
sI24
S"    response.write(x['quantidade'])"
p112
sI25
S"    response.write('</td>\\n            ', escape=False)"
p113
sI26
S'    if "Aprovado" in x[\'status_easypay\']:'
p114
ssg83
S'()'
p115
sg85
S'<module>'
p116
sasS'pyver'
p117
S'Python 2.7.6: /usr/local/bin/uwsgi (prefix: /usr)'
p118
sS'session'
p119
g57
(S'sz\t\x00\x00<div><table><tr><td style="font-weight:bold;vertical-align:top;">auth</td><td style="vertical-align:top;">:</td><td><div><table><tr><td style="font-weight:bold;vertical-align:top;">expiration</td><td style="vertical-align:top;">:</td><td><div>3600</div></td></tr><tr><td style="font-weight:bold;vertical-align:top;">hmac_key</td><td style="vertical-align:top;">:</td><td><div>7f2f386c-d1c1-4f4d-8f36-d917ac186ed9</div></td></tr><tr><td style="font-weight:bold;vertical-align:top;">last_visit</td><td style="vertical-align:top;">:</td><td><div>datetime.datetime(2016, 4, 21, 18, 7, 51, 745391)</div></td></tr><tr><td style="font-weight:bold;vertical-align:top;">remember_me</td><td style="vertical-align:top;">:</td><td><div>False</div></td></tr><tr><td style="font-weight:bold;vertical-align:top;">user</td><td style="vertical-align:top;">:</td><td><div><table><tr><td style="font-weight:bold;vertical-align:top;">email</td><td style="vertical-align:top;">:</td><td><div>ricardo.c.sousa@gmail.com</div></td></tr><tr><td style="font-weight:bold;vertical-align:top;">first_name</td><td style="vertical-align:top;">:</td><td><div>Ricardo</div></td></tr><tr><td style="font-weight:bold;vertical-align:top;">id</td><td style="vertical-align:top;">:</td><td><div>1L</div></td></tr><tr><td style="font-weight:bold;vertical-align:top;">last_name</td><td style="vertical-align:top;">:</td><td><div>Coelho</div></td></tr><tr><td style="font-weight:bold;vertical-align:top;">registration_id</td><td style="vertical-align:top;">:</td><td><div></div></td></tr><tr><td style="font-weight:bold;vertical-align:top;">registration_key</td><td style="vertical-align:top;">:</td><td><div></div></td></tr><tr><td style="font-weight:bold;vertical-align:top;">reset_password_key</td><td style="vertical-align:top;">:</td><td><div></div></td></tr><tr><td style="font-weight:bold;vertical-align:top;">username</td><td style="vertical-align:top;">:</td><td><div>rcsousa</div></td></tr></table></div></td></tr><tr><td style="font-weight:bold;vertical-align:top;">user_groups</td><td style="vertical-align:top;">:</td><td><div><table><tr><td style="font-weight:bold;vertical-align:top;">1</td><td style="vertical-align:top;">:</td><td><div>user_1</div></td></tr></table></div></td></tr></table></div></td></tr><tr><td style="font-weight:bold;vertical-align:top;">flash</td><td style="vertical-align:top;">:</td><td><div>None</div></td></tr></table></div>'
tRp120
sS'etype'
p121
S"<type 'exceptions.KeyError'>"
p122
sS'date'
p123
S'Thu Apr 21 18:09:03 2016'
p124
sS'response'
p125
g57
(S's\xb22\x00\x00<div><table><tr><td style="font-weight:bold;vertical-align:top;">body</td><td style="vertical-align:top;">:</td><td><div>&lt;cStringIO.StringO object at 0x7f8e0158b538&gt;</div></td></tr><tr><td style="font-weight:bold;vertical-align:top;">cookies</td><td style="vertical-align:top;">:</td><td><div><table><tr><td style="font-weight:bold;vertical-align:top;">session_id_easypay</td><td style="vertical-align:top;">:</td><td><div>201.83.52.183-23289418-8368-488d-abe8-cfa6c2fcca29<table><tr><td style="font-weight:bold;vertical-align:top;">comment</td><td style="vertical-align:top;">:</td><td><div></div></td></tr><tr><td style="font-weight:bold;vertical-align:top;">domain</td><td style="vertical-align:top;">:</td><td><div></div></td></tr><tr><td style="font-weight:bold;vertical-align:top;">expires</td><td style="vertical-align:top;">:</td><td><div></div></td></tr><tr><td style="font-weight:bold;vertical-align:top;">httponly</td><td style="vertical-align:top;">:</td><td><div></div></td></tr><tr><td style="font-weight:bold;vertical-align:top;">max-age</td><td style="vertical-align:top;">:</td><td><div></div></td></tr><tr><td style="font-weight:bold;vertical-align:top;">path</td><td style="vertical-align:top;">:</td><td><div>/</div></td></tr><tr><td style="font-weight:bold;vertical-align:top;">secure</td><td style="vertical-align:top;">:</td><td><div></div></td></tr><tr><td style="font-weight:bold;vertical-align:top;">version</td><td style="vertical-align:top;">:</td><td><div></div></td></tr></table></div></td></tr></table></div></td></tr><tr><td style="font-weight:bold;vertical-align:top;">delimiters</td><td style="vertical-align:top;">:</td><td><div><table><tr><td><div>{{</div></td></tr><tr><td><div>}}</div></td></tr></table></div></td></tr><tr><td style="font-weight:bold;vertical-align:top;">files</td><td style="vertical-align:top;">:</td><td><div><table></table></div></td></tr><tr><td style="font-weight:bold;vertical-align:top;">flash</td><td style="vertical-align:top;">:</td><td><div></div></td></tr><tr><td style="font-weight:bold;vertical-align:top;">form_label_separator</td><td style="vertical-align:top;">:</td><td><div>: </div></td></tr><tr><td style="font-weight:bold;vertical-align:top;">formstyle</td><td style="vertical-align:top;">:</td><td><div>table3cols</div></td></tr><tr><td style="font-weight:bold;vertical-align:top;">generic_patterns</td><td style="vertical-align:top;">:</td><td><div><table></table></div></td></tr><tr><td style="font-weight:bold;vertical-align:top;">google_analytics_id</td><td style="vertical-align:top;">:</td><td><div>None</div></td></tr><tr><td style="font-weight:bold;vertical-align:top;">headers</td><td style="vertical-align:top;">:</td><td><div><table><tr><td style="font-weight:bold;vertical-align:top;">X-Powered-By</td><td style="vertical-align:top;">:</td><td><div>web2py</div></td></tr></table></div></td></tr><tr><td style="font-weight:bold;vertical-align:top;">logo</td><td style="vertical-align:top;">:</td><td><div><a class="brand" href="http://www.web2py.com/"><b>web<span>2</span>py</b>&trade;&nbsp;</a></div></td></tr><tr><td style="font-weight:bold;vertical-align:top;">menu</td><td style="vertical-align:top;">:</td><td><div><table><tr><td><div><table><tr><td><div>Principal</div></td></tr><tr><td><div>False</div></td></tr><tr><td><div>/easypay/default/index</div></td></tr><tr><td><div><table></table></div></td></tr></table></div></td></tr><tr><td><div><table><tr><td><div><span class="highlighted">web2py</span></div></td></tr><tr><td><div>False</div></td></tr><tr><td><div>http://web2py.com</div></td></tr><tr><td><div><table><tr><td><div><table><tr><td><div>Meus sites</div></td></tr><tr><td><div>False</div></td></tr><tr><td><div>/admin/default/site</div></td></tr></table></div></td></tr><tr><td><div><table><tr><td><div>Esta aplica\xc3\xa7\xc3\xa3o</div></td></tr><tr><td><div>False</div></td></tr><tr><td><div>/admin/default/design/easypay</div></td></tr><tr><td><div>[(&lt;lazyT &#x27;Controller&#x27;&gt;, False, &#x27;/admin/default/edit/easypay/controllers/default.py&#x27;), (&lt;lazyT &#x27;View&#x27;&gt;, False, &#x27;/admin/default/edit/easypay/views/default/tela_vendedor.html&#x27;), (&lt;lazyT &#x27;Layout&#x27;&gt;, False, &#x27;/admin/default/edit/easypay/views/layout.html&#x27;), (&lt;lazyT &#x27;Stylesheet&#x27;&gt;, False, &#x27;/admin/default/edit/easypay/static/css/web2py.css&#x27;), (&lt;lazyT &#x27;DB Model&#x27;&gt;, False, &#x27;/admin/default/edit/easypay/models/db.py&#x27;), (&lt;lazyT &#x27;Menu Model&#x27;&gt;, False, &#x27;/admin/default/edit/easypay/models/menu.py&#x27;), (&lt;lazyT &#x27;Database&#x27;&gt;, False, &#x27;/easypay/appadmin/index&#x27;), (&lt;lazyT &#x27;Errors&#x27;&gt;, False, &#x27;/admin/default/errors/easypay&#x27;), (&lt;lazyT &#x27;About&#x27;&gt;, False, &#x27;/admin/default/about/easypay&#x27;)]</div></td></tr></table></div></td></tr><tr><td><div><table><tr><td><div>web2py.com</div></td></tr><tr><td><div>False</div></td></tr><tr><td><div>http://www.web2py.com</div></td></tr><tr><td><div>[(&lt;lazyT &#x27;Download&#x27;&gt;, False, &#x27;http://www.web2py.com/examples/default/download&#x27;), (&lt;lazyT &#x27;Support&#x27;&gt;, False, &#x27;http://www.web2py.com/examples/default/support&#x27;), (&lt;lazyT &#x27;Demo&#x27;&gt;, False, &#x27;http://web2py.com/demo_admin&#x27;), (&lt;lazyT &#x27;Quick Examples&#x27;&gt;, False, &#x27;http://web2py.com/examples/default/examples&#x27;), (&lt;lazyT &#x27;FAQ&#x27;&gt;, False, &#x27;http://web2py.com/AlterEgo&#x27;), (&lt;lazyT &#x27;Videos&#x27;&gt;, False, &#x27;http://www.web2py.com/examples/default/videos/&#x27;), (&lt;lazyT &#x27;Free Applications&#x27;&gt;, False, &#x27;http://web2py.com/appliances&#x27;), (&lt;lazyT &#x27;Plugins&#x27;&gt;, False, &#x27;http://web2py.com/plugins&#x27;), (&lt;lazyT &#x27;Layouts&#x27;&gt;, False, &#x27;http://web2py.com/layouts&#x27;), (&lt;lazyT &#x27;Recipes&#x27;&gt;, False, &#x27;http://web2pyslices.com/&#x27;), (&lt;lazyT &#x27;Semantic&#x27;&gt;, False, &#x27;http://web2py.com/semantic&#x27;)]</div></td></tr></table></div></td></tr><tr><td><div><table><tr><td><div>Documenta\xc3\xa7\xc3\xa3o</div></td></tr><tr><td><div>False</div></td></tr><tr><td><div>http://www.web2py.com/book</div></td></tr><tr><td><div>[(&lt;lazyT &#x27;Preface&#x27;&gt;, False, &#x27;http://www.web2py.com/book/default/chapter/00&#x27;), (&lt;lazyT &#x27;Introduction&#x27;&gt;, False, &#x27;http://www.web2py.com/book/default/chapter/01&#x27;), (&lt;lazyT &#x27;Python&#x27;&gt;, False, &#x27;http://www.web2py.com/book/default/chapter/02&#x27;), (&lt;lazyT &#x27;Overview&#x27;&gt;, False, &#x27;http://www.web2py.com/book/default/chapter/03&#x27;), (&lt;lazyT &#x27;The Core&#x27;&gt;, False, &#x27;http://www.web2py.com/book/default/chapter/04&#x27;), (&lt;lazyT &#x27;The Views&#x27;&gt;, False, &#x27;http://www.web2py.com/book/default/chapter/05&#x27;), (&lt;lazyT &#x27;Database&#x27;&gt;, False, &#x27;http://www.web2py.com/book/default/chapter/06&#x27;), (&lt;lazyT &#x27;Forms and Validators&#x27;&gt;, False, &#x27;http://www.web2py.com/book/default/chapter/07&#x27;), (&lt;lazyT &#x27;Email and SMS&#x27;&gt;, False, &#x27;http://www.web2py.com/book/default/chapter/08&#x27;), (&lt;lazyT &#x27;Access Control&#x27;&gt;, False, &#x27;http://www.web2py.com/book/default/chapter/09&#x27;), (&lt;lazyT &#x27;Services&#x27;&gt;, False, &#x27;http://www.web2py.com/book/default/chapter/10&#x27;), (&lt;lazyT &#x27;Ajax Recipes&#x27;&gt;, False, &#x27;http://www.web2py.com/book/default/chapter/11&#x27;), (&lt;lazyT &#x27;Components and Plugins&#x27;&gt;, False, &#x27;http://www.web2py.com/book/default/chapter/12&#x27;), (&lt;lazyT &#x27;Deployment Recipes&#x27;&gt;, False, &#x27;http://www.web2py.com/book/default/chapter/13&#x27;), (&lt;lazyT &#x27;Other Recipes&#x27;&gt;, False, &#x27;http://www.web2py.com/book/default/chapter/14&#x27;), (&lt;lazyT &#x27;Buy this book&#x27;&gt;, False, &#x27;http://stores.lulu.com/web2py&#x27;)]</div></td></tr></table></div></td></tr><tr><td><div><table><tr><td><div>Comunidade</div></td></tr><tr><td><div>False</div></td></tr><tr><td><div>None</div></td></tr><tr><td><div>[(&lt;lazyT &#x27;Groups&#x27;&gt;, False, &#x27;http://www.web2py.com/examples/default/usergroups&#x27;), (&lt;lazyT &#x27;Twitter&#x27;&gt;, False, &#x27;http://twitter.com/web2py&#x27;), (&lt;lazyT &#x27;Live Chat&#x27;&gt;, False, &#x27;http://webchat.freenode.net/?channels=web2py&#x27;)]</div></td></tr></table></div></td></tr><tr><td><div><table><tr><td><div>Plugins</div></td></tr><tr><td><div>False</div></td></tr><tr><td><div>None</div></td></tr><tr><td><div>[(&#x27;plugin_wiki&#x27;, False, &#x27;http://web2py.com/examples/default/download&#x27;), (&lt;lazyT &#x27;Other Plugins&#x27;&gt;, False, &#x27;http://web2py.com/plugins&#x27;), (&lt;lazyT &#x27;Layout Plugins&#x27;&gt;, False, &#x27;http://web2py.com/layouts&#x27;)]</div></td></tr></table></div></td></tr></table></div></td></tr></table></div></td></tr></table></div></td></tr><tr><td style="font-weight:bold;vertical-align:top;">meta</td><td style="vertical-align:top;">:</td><td><div><table><tr><td style="font-weight:bold;vertical-align:top;">author</td><td style="vertical-align:top;">:</td><td><div>Your Name &lt;you@example.com&gt;</div></td></tr><tr><td style="font-weight:bold;vertical-align:top;">generator</td><td style="vertical-align:top;">:</td><td><div>Web2py Web Framework</div></td></tr><tr><td style="font-weight:bold;vertical-align:top;">keywords</td><td style="vertical-align:top;">:</td><td><div>web2py, python, framework</div></td></tr></table></div></td></tr><tr><td style="font-weight:bold;vertical-align:top;">models_to_run</td><td style="vertical-align:top;">:</td><td><div><table><tr><td><div>^\\w+\\.py$</div></td></tr><tr><td><div>^default/\\w+\\.py$</div></td></tr><tr><td><div>^default/tela_vendedor/\\w+\\.py$</div></td></tr></table></div></td></tr><tr><td style="font-weight:bold;vertical-align:top;">postprocessing</td><td style="vertical-align:top;">:</td><td><div><table></table></div></td></tr><tr><td style="font-weight:bold;vertical-align:top;">session_client</td><td style="vertical-align:top;">:</td><td><div>201.83.52.183</div></td></tr><tr><td style="font-weight:bold;vertical-align:top;">session_cookie_compression_level</td><td style="vertical-align:top;">:</td><td><div>None</div></td></tr><tr><td style="font-weight:bold;vertical-align:top;">session_cookie_expires</td><td style="vertical-align:top;">:</td><td><div>None</div></td></tr><tr><td style="font-weight:bold;vertical-align:top;">session_cookie_key</td><td style="vertical-align:top;">:</td><td><div>None</div></td></tr><tr><td style="font-weight:bold;vertical-align:top;">session_data_name</td><td style="vertical-align:top;">:</td><td><div>session_data_easypay</div></td></tr><tr><td style="font-weight:bold;vertical-align:top;">session_file</td><td style="vertical-align:top;">:</td><td><div>&lt;open file &#x27;/home/www-data/web2py/applications/easypay/sessions/0ff/0f7/201.83.52.183-23289418-8368-488d-abe8-cfa6c2fcca29&#x27;, mode &#x27;rb+&#x27; at 0x7f8e0ac82300&gt;</div></td></tr><tr><td style="font-weight:bold;vertical-align:top;">session_filename</td><td style="vertical-align:top;">:</td><td><div>/home/www-data/web2py/applications/easypay/sessions/201.83.52.183-23289418-8368-488d-abe8-cfa6c2fcca29</div></td></tr><tr><td style="font-weight:bold;vertical-align:top;">session_hash</td><td style="vertical-align:top;">:</td><td><div>8815bf05120d3ea1647b198c018c32e4</div></td></tr><tr><td style="font-weight:bold;vertical-align:top;">session_id</td><td style="vertical-align:top;">:</td><td><div>201.83.52.183-23289418-8368-488d-abe8-cfa6c2fcca29</div></td></tr><tr><td style="font-weight:bold;vertical-align:top;">session_id_name</td><td style="vertical-align:top;">:</td><td><div>session_id_easypay</div></td></tr><tr><td style="font-weight:bold;vertical-align:top;">session_locked</td><td style="vertical-align:top;">:</td><td><div>True</div></td></tr><tr><td style="font-weight:bold;vertical-align:top;">session_masterapp</td><td style="vertical-align:top;">:</td><td><div>easypay</div></td></tr><tr><td style="font-weight:bold;vertical-align:top;">session_new</td><td style="vertical-align:top;">:</td><td><div>False</div></td></tr><tr><td style="font-weight:bold;vertical-align:top;">session_storage_type</td><td style="vertical-align:top;">:</td><td><div>file</div></td></tr><tr><td style="font-weight:bold;vertical-align:top;">status</td><td style="vertical-align:top;">:</td><td><div>200</div></td></tr><tr><td style="font-weight:bold;vertical-align:top;">subtitle</td><td style="vertical-align:top;">:</td><td><div></div></td></tr><tr><td style="font-weight:bold;vertical-align:top;">title</td><td style="vertical-align:top;">:</td><td><div>Easypay</div></td></tr><tr><td style="font-weight:bold;vertical-align:top;">view</td><td style="vertical-align:top;">:</td><td><div>default/tela_vendedor.html</div></td></tr></table></div>'
tRp126
sS'locals'
p127
(dp128
S'Service'
p129
S"<class 'gluon.tools.Service'>"
p130
sS'TR'
p131
S"<class 'gluon.html.TR'>"
p132
sS'OBJECT'
p133
S"<class 'gluon.html.OBJECT'>"
p134
sS'SQLDB'
p135
S"<class 'gluon.dal.base.DAL'>"
p136
sg119
S"<Storage {'_auth_next': None, 'flash': None, 'au...gin]': ['1bd256d1-3791-4b01-973f-f267cae2acb1']}>"
p137
sS'LINK'
p138
S"<class 'gluon.html.LINK'>"
p139
sS'BR'
p140
S"<class 'gluon.html.BR'>"
p141
sS'local_import'
p142
S'<function <lambda>>'
p143
sS'OPTGROUP'
p144
S"<class 'gluon.html.OPTGROUP'>"
p145
sS'__package__'
p146
S'None'
p147
sS'PRE'
p148
S"<class 'gluon.html.PRE'>"
p149
sS'IS_INT_IN_RANGE'
p150
S"<class 'gluon.validators.IS_INT_IN_RANGE'>"
p151
sS'IS_LOWER'
p152
S"<class 'gluon.validators.IS_LOWER'>"
p153
sS'IS_STRONG'
p154
S"<class 'gluon.validators.IS_STRONG'>"
p155
sS'cache'
p156
S'<gluon.cache.Cache object>'
p157
sS'IS_IN_DB'
p158
S"<class 'gluon.validators.IS_IN_DB'>"
p159
sS'TAG'
p160
S'<gluon.html.__TAG__ object>'
p161
sS'SQLField'
p162
S"<class 'gluon.dal.objects.Field'>"
p163
sS'mail'
p164
S'<gluon.tools.Mail object>'
p165
sS'BODY'
p166
S"<class 'gluon.html.BODY'>"
p167
sS'IS_DATE_IN_RANGE'
p168
S"<class 'gluon.validators.IS_DATE_IN_RANGE'>"
p169
sS'IFRAME'
p170
S"<class 'gluon.html.IFRAME'>"
p171
sS'URL'
p172
S'<function URL>'
p173
sS'docs'
p174
S"[{u'canal': u'caixa-1', u'status_easypay': u'Apro...d65ef0e3f1869', u'status_comprador': u'Aprovado'}, {u'canal': u'caixa-1', u'status_easypay': u'Apro...d081bd1567ddc', u'status_comprador': u'Aprovado'}, {u'canal': u'caixa-1', u'status_easypay': u'Pend...e0eb61ef5058c', u'status_comprador': u'Aprovado'}, {u'canal': u'caixa-1', u'status_easypay': u'Apro...6059de2be86e7', u'status_comprador': u'Aprovado'}, {u'canal': u'caixa-1', u'status_easypay': u'Pend...0af7a2b3b7c4b', u'status_comprador': u'Aprovado'}, {u'canal': u'caixa-1', u'status_easypay': u'Reje...9178b85cea0a3', u'status_comprador': u'Pendente'}, {u'canal': u'caixa-1', u'status_easypay': u'Pend...f16a5144737fa', u'status_comprador': u'Pendente'}, {u'canal': u'caixa-1', u'status_easypay': u'Pend...5a640c75fc394', u'status_comprador': u'Pendente'}, {u'canal': u'caixa-1', u'status_easypay': u'Reje...15b34043d20e', u'status_comprador': u'Rejeitado'}, {u'canal': u'caixa-1', u'status_easypay': u'Reje...7992d252400b', u'status_comprador': u'Rejeitado'}, {u'canal': u'caixa-1', u'status_easypay': u'Apro...6ab63026c5a70', u'status_comprador': u'Aprovado'}, {u'canal': u'caixa-1', u'status_easypay': u'Pend...34e68fb9bd562', u'status_comprador': u'Pendente'}, {u'canal': u'caixa-1', u'status_easypay': u'Apro...c32ba1551bdec', u'status_comprador': u'Aprovado'}, {u'canal': u'caixa-1', u'status_easypay': u'Pend...b29ac0874fe22', u'status_comprador': u'Aprovado'}, {u'canal': u'caixa-1', u'status_easypay': u'Apro...a678118d5f0e5', u'status_comprador': u'Aprovado'}, {u'canal': u'caixa-1', u'status_easypay': u'Pend...aa46dbbed3f28', u'status_comprador': u'Pendente'}, {u'canal': u'caixa-1', u'status_easypay': u'Apro...f6197be2d21d9', u'status_comprador': u'Aprovado'}, {u'canal': u'caixa-1', u'status_easypay': u'Apro...826d71537e081', u'status_comprador': u'Aprovado'}, {u'canal': u'caixa-1', u'status_easypay': u'Apro...bb6b85aa3c594', u'status_comprador': u'Aprovado'}, {u'canal': u'caixa-1', u'status_easypay': u'Apro...bc87d95a59e65', u'status_comprador': u'Aprovado'}, ...]"
p175
sS'__file__'
p176
S"'/home/www-data/web2py/applications/easypay/views/default/tela_vendedor.html'"
p177
sS'db'
p178
S'<DAL uri="sqlite://storage.sqlite">'
p179
sS'auth'
p180
S'<gluon.tools.Auth object>'
p181
sS'P'
S"<class 'gluon.html.P'>"
p182
sS'TFOOT'
p183
S"<class 'gluon.html.TFOOT'>"
p184
sS'XHTML'
p185
S"<class 'gluon.html.XHTML'>"
p186
sS'ON'
p187
S'True'
p188
sS'OL'
p189
S"<class 'gluon.html.OL'>"
p190
sS'TEXTAREA'
p191
S"<class 'gluon.html.TEXTAREA'>"
p192
sS'MENU'
p193
S"<class 'gluon.html.MENU'>"
p194
sS'IS_IMAGE'
p195
S"<class 'gluon.validators.IS_IMAGE'>"
p196
sS'x'
S"{u'language': u'javascript', 'views': {u'view': ...a4cfb5a', '_id': u'_design/view', u'indexes': {}}"
p197
sS'EM'
p198
S"<class 'gluon.html.EM'>"
p199
sS'CODE'
p200
S"<class 'gluon.html.CODE'>"
p201
sS'HTTP'
p202
S"<class 'gluon.http.HTTP'>"
p203
sS'HR'
p204
S"<class 'gluon.html.HR'>"
p205
sS'IS_DATETIME'
p206
S"<class 'gluon.validators.IS_DATETIME'>"
p207
sS'STYLE'
p208
S"<class 'gluon.html.STYLE'>"
p209
sS'LABEL'
p210
S"<class 'gluon.html.LABEL'>"
p211
sS'CLEANUP'
p212
S"<class 'gluon.validators.CLEANUP'>"
p213
sS'plugins'
p214
S'<gluon.tools.PluginManager object>'
p215
sS'SELECT'
p216
S"<class 'gluon.html.SELECT'>"
p217
sS'use_janrain'
p218
S'<function use_janrain>'
p219
sS'CENTER'
p220
S"<class 'gluon.html.CENTER'>"
p221
sS'Auth'
p222
S"<class 'gluon.tools.Auth'>"
p223
sS'DEVELOPMENT_MENU'
p224
g188
sS'__builtins__'
p225
S"{'ArithmeticError': <type 'exceptions.ArithmeticError'>, 'AssertionError': <type 'exceptions.AssertionError'>, 'AttributeError': <type 'exceptions.AttributeError'>, 'BaseException': <type 'exceptions.BaseException'>, 'BufferError': <type 'exceptions.BufferError'>, 'BytesWarning': <type 'exceptions.BytesWarning'>, 'DeprecationWarning': <type 'exceptions.DeprecationWarning'>, 'EOFError': <type 'exceptions.EOFError'>, 'Ellipsis': Ellipsis, 'EnvironmentError': <type 'exceptions.EnvironmentError'>, ...}"
p226
sS'HTML'
p227
S"<class 'gluon.html.HTML'>"
p228
sS'SQLFORM'
p229
S"<class 'gluon.sqlhtml.SQLFORM'>"
p230
sS'LOAD'
p231
S'<function LOAD>'
p232
sS'redirect'
p233
S'<function redirect>'
p234
sS'FIELDSET'
p235
S"<class 'gluon.html.FIELDSET'>"
p236
sS'IS_EQUAL_TO'
p237
S"<class 'gluon.validators.IS_EQUAL_TO'>"
p238
sS'embed64'
p239
S'<function embed64>'
p240
sS'IS_LIST_OF'
p241
S"<class 'gluon.validators.IS_LIST_OF'>"
p242
sS'INPUT'
p243
S"<class 'gluon.html.INPUT'>"
p244
sS'EMBED'
p245
S"<class 'gluon.html.EMBED'>"
p246
sS'_'
S'<function _>'
p247
sS'H2'
p248
S"<class 'gluon.html.H2'>"
p249
sS'H3'
p250
S"<class 'gluon.html.H3'>"
p251
sS'BUTTON'
p252
S"<class 'gluon.html.BUTTON'>"
p253
sS'H1'
p254
S"<class 'gluon.html.H1'>"
p255
sS'H6'
p256
S"<class 'gluon.html.H6'>"
p257
sS'H4'
p258
S"<class 'gluon.html.H4'>"
p259
sS'H5'
p260
S"<class 'gluon.html.H5'>"
p261
sS'UL'
p262
S"<class 'gluon.html.UL'>"
p263
sS'IS_UPPER'
p264
S"<class 'gluon.validators.IS_UPPER'>"
p265
sS'xmlescape'
p266
S'<function xmlescape>'
p267
sS'IS_TIME'
p268
S"<class 'gluon.validators.IS_TIME'>"
p269
sS'OPTION'
p270
S"<class 'gluon.html.OPTION'>"
p271
sS'TITLE'
p272
S"<class 'gluon.html.TITLE'>"
p273
sS'CRYPT'
p274
S"<class 'gluon.validators.CRYPT'>"
p275
sS'IS_EMPTY_OR'
p276
S"<class 'gluon.validators.IS_EMPTY_OR'>"
p277
sS'MARKMIN'
p278
S"<class 'gluon.html.MARKMIN'>"
p279
sS'__name__'
p280
S"'__restricted__'"
p281
sS'STRONG'
p282
S"<class 'gluon.html.STRONG'>"
p283
sS'COL'
p284
S"<class 'gluon.html.COL'>"
p285
sS'service'
p286
S'<gluon.tools.Service object>'
p287
sS'SCRIPT'
p288
S"<class 'gluon.html.SCRIPT'>"
p289
sS'TABLE'
p290
S"<class 'gluon.html.TABLE'>"
p291
sS'IS_IPV4'
p292
S"<class 'gluon.validators.IS_IPV4'>"
p293
sS'IS_LENGTH'
p294
S"<class 'gluon.validators.IS_LENGTH'>"
p295
sS'IS_IPV6'
p296
S"<class 'gluon.validators.IS_IPV6'>"
p297
sS'XML'
p298
S"<class 'gluon.html.XML'>"
p299
sS'B'
S"<class 'gluon.html.B'>"
p300
sS'IMG'
p301
S"<class 'gluon.html.IMG'>"
p302
sS'SQLTABLE'
p303
S"<class 'gluon.sqlhtml.SQLTABLE'>"
p304
sS'IS_MATCH'
p305
S"<class 'gluon.validators.IS_MATCH'>"
p306
sS'IS_ALPHANUMERIC'
p307
S"<class 'gluon.validators.IS_ALPHANUMERIC'>"
p308
sS'SPAN'
p309
S"<class 'gluon.html.SPAN'>"
p310
sS'IS_JSON'
p311
S"<class 'gluon.validators.IS_JSON'>"
p312
sS'IS_IPADDRESS'
p313
S"<class 'gluon.validators.IS_IPADDRESS'>"
p314
sS'IS_SLUG'
p315
S"<class 'gluon.validators.IS_SLUG'>"
p316
sS'BEAUTIFY'
p317
S"<class 'gluon.html.BEAUTIFY'>"
p318
sS'META'
p319
S"<class 'gluon.html.META'>"
p320
sS'IS_DATE'
p321
S"<class 'gluon.validators.IS_DATE'>"
p322
sS'IS_EMAIL'
p323
S"<class 'gluon.validators.IS_EMAIL'>"
p324
sS'IS_NOT_EMPTY'
p325
S"<class 'gluon.validators.IS_NOT_EMPTY'>"
p326
sS'IS_FLOAT_IN_RANGE'
p327
S"<class 'gluon.validators.IS_FLOAT_IN_RANGE'>"
p328
sS'TBODY'
p329
S"<class 'gluon.html.TBODY'>"
p330
sS'CAT'
p331
S"<class 'gluon.html.CAT'>"
p332
sS'Field'
p333
S"<class 'gluon.dal.objects.Field'>"
p334
sS'IS_LIST_OF_EMAILS'
p335
S"<class 'gluon.validators.IS_LIST_OF_EMAILS'>"
p336
sS'DIV'
p337
S"<class 'gluon.html.DIV'>"
p338
sS'LEGEND'
p339
S"<class 'gluon.html.LEGEND'>"
p340
sS'COLGROUP'
p341
S"<class 'gluon.html.COLGROUP'>"
p342
sS'DAL'
p343
S"<class 'gluon.dal.base.DAL'>"
p344
sS'ASSIGNJS'
p345
S'<function ASSIGNJS>'
p346
sS'produto'
p347
S"[(7L, 'Camiseta Express\\xc3\\xb5es Darth Vader', '79,90', 'produtos.figura.b5dc69dbdb53c837.3438393638365f676466662e706e67.png'), (8L, 'Camiseta Unissex Logo Imp\\xc3\\xa9rio Star Wars', '69,90', 'produtos.figura.bff6e98ddac8e30b.3438393637395f366534343936303130322d5265636f76657265642e706e67.png'), (9L, 'Camiseta Star Wars Trooper Helmet', '79,90', 'produtos.figura.8d62aadd75e61f5c.3936343637315f626163363633303865662e6a7067.jpg'), (10L, 'Camiseta Vintage Flux Capacitor Back to the Future', '69,90', 'produtos.figura.ac48bb585b6fb54d.32393634345f436...f4261636b5f746f5f7468655f4675747572652e706e67.png'), (11L, 'Camiseta Titanfall Atorasu Vintage Logo', '34,90', 'produtos.figura.a4ea5038627da936.3438353832365f3...974616e66616c6c2d61746f726173752d67672e706e67.png'), (12L, 'Camiseta Better Call Saul! Breaking Bad', '79,90', 'produtos.figura.9020d9f0e8cfaf23.3530323737325f636635376263303362662e706e67.png'), (13L, 'Camiseta Homem Aranha Logo Marvel', '79,90', 'produtos.figura.8637fc6ef2e6232f.3534343831335f6172616e68612d6c6f676f2e706e67.png'), (14L, 'Camiseta Pinguim Marrom New Era', '139,90', 'produtos.figura.a1a301fdbae621c3.3530313933385f63616d69736574615f6e65776572615f303232352e706e67.png')]"
p348
sS'LI'
p349
S"<class 'gluon.html.LI'>"
p350
sS'TH'
p351
S"<class 'gluon.html.TH'>"
p352
sS'TD'
p353
S"<class 'gluon.html.TD'>"
p354
sS'PluginManager'
p355
S"<class 'gluon.tools.PluginManager'>"
p356
sS'IS_URL'
p357
S"<class 'gluon.validators.IS_URL'>"
p358
sS'A'
S"<class 'gluon.html.A'>"
p359
sS'HEAD'
p360
S"<class 'gluon.html.HEAD'>"
p361
sS'IS_DATETIME_IN_RANGE'
p362
S"<class 'gluon.validators.IS_DATETIME_IN_RANGE'>"
p363
sS'FORM'
p364
S"<class 'gluon.html.FORM'>"
p365
sS'I'
S"<class 'gluon.html.I'>"
p366
sS'IS_NOT_IN_DB'
p367
S"<class 'gluon.validators.IS_NOT_IN_DB'>"
p368
sS'user'
p369
S"<Row {'username': 'rcsousa', 'first_name': 'Rica...word_key': '', 'registration_key': '', 'id': 1L}>"
p370
sg125
S"<Storage {'body': <cStringIO.StringO object at 0...018d7f50>, 'view': 'default/tela_vendedor.html'}>"
p371
sS'THEAD'
p372
S"<class 'gluon.html.THEAD'>"
p373
sS'ANY_OF'
p374
S"<class 'gluon.validators.ANY_OF'>"
p375
sS'IS_NULL_OR'
p376
S"<class 'gluon.validators.IS_EMPTY_OR'>"
p377
sg56
S"<Storage {'_vars': None, 'function': 'tela_vende...: '/home/www-data/web2py/applications/easypay/'}>"
p378
sS'IS_EXPR'
p379
S"<class 'gluon.validators.IS_EXPR'>"
p380
sS'T'
S'<gluon.languages.translator object>'
p381
sS'IS_IN_SET'
p382
S"<class 'gluon.validators.IS_IN_SET'>"
p383
sS'IS_UPLOAD_FILENAME'
p384
S"<class 'gluon.validators.IS_UPLOAD_FILENAME'>"
p385
sS'TT'
p386
S"<class 'gluon.html.TT'>"
p387
sS'IS_DECIMAL_IN_RANGE'
p388
S"<class 'gluon.validators.IS_DECIMAL_IN_RANGE'>"
p389
sssS'traceback'
p390
S'Traceback (most recent call last):\n  File "/home/www-data/web2py/gluon/restricted.py", line 224, in restricted\n    exec ccode in environment\n  File "/home/www-data/web2py/applications/easypay/views/default/tela_vendedor.html", line 16, in <module>\nKeyError: \'item\'\n'
p391
s.