(dp1
S'output'
p2
S"<type 'exceptions.AttributeError'> 'float' object has no attribute 'replace'"
p3
sS'layer'
p4
S'/home/www-data/web2py/applications/easypay/controllers/default.py'
p5
sS'code'
p6
S'#from bottle import request, run, post, tob, route\n#from io import BytesIO\n\n\ndef qrcode():\n    response.flash = T("Welcome to web2py!")\n    return dict(message=T(\'Hello World\'))\n\n@auth.requires_login()\ndef oldnavbar():\n    response.flash = T("Welcome to web2py!")\n    return dict(user=auth.user)\n\n\n@auth.requires_login()\ndef tela_vendedor():\n    import os, requests, json\n    db = DAL(\'sqlite://storage.sqlite\',folder=os.getcwd()+\'/applications/easypay/databases\',auto_import=True)\n    linhas = db(db.produtos.id > 0).select()\n    selector = \'\'\'{"selector": {"_id": {"$gt": null},"timestamp": {"$regex": ".*"}},"fields" : ["canal","status_easypay","figura","quantidade","timestamp", "status_comprador", "status_vendedor", "image_name", "item", "valor","_id"], "sort": [{"timestamp": "desc"}]}\'\'\'\n    z = requests.post("https://rcsousa.cloudant.com/easypay/_find", data=selector)\n    result = json.loads(z.text)\n    docs = []\n    produto = []\n    preco = []\n    _id = []\n    figura = []\n    total = []\n    for x in linhas:\n        produto.append(x.produto)\n        preco.append(x.preco)\n        _id.append(x.id)\n        figura.append(x.figura)\n    for doc in result[\'docs\']:\n        docs.append(doc)\n    for x in docs:\n        for y in x[\'valor\']:\n            total.append(y.replace(\',\',\'.\'))\n    return dict(docs=docs, total=sum(map(float,total)).replace(\'.\',\',\'), produto=zip(_id, produto, preco,figura), user=auth.user)\n\n@auth.requires_login()\ndef lista_de_produtos():\n    import os\n    db = DAL(\'sqlite://storage.sqlite\',folder=os.getcwd()+\'/applications/easypay/databases\',auto_import=True)\n    linhas = db(db.produtos.id > 0).select()\n    produto = []\n    preco = []\n    _id = []\n    figura = []\n    descricao = []\n    for x in linhas:\n        produto.append(x.produto)\n        preco.append(x.preco)\n        _id.append(x.id)\n        figura.append(x.figura)\n        descricao.append(x.descricao)\n    return dict(produtos=zip(_id, produto, descricao, preco,figura), user=auth.user)\n\n@auth.requires_login()\ndef lista_de_ordens():\n    import os\n    db = DAL(\'sqlite://storage.sqlite\',folder=os.getcwd()+\'/applications/easypay/databases\',auto_import=True)\n    linhas = db(db.ordens.id > 0).select(orderby=~db.ordens.id)\n    produtos = []\n    valor = []\n    _id = []\n    figura = []\n    for x in linhas:\n        produtos.append(x.produtos)\n        valor.append(x.valor)\n        _id.append(x.id)\n        figura.append(x.figura)\n    return dict(produtos=zip(_id, produtos, valor,figura), user=auth.user)\n\n@auth.requires_login()\ndef lista_de_produtos_checkbox():\n    import os\n    db = DAL(\'sqlite://storage.sqlite\',folder=os.getcwd()+\'/applications/easypay/databases\',auto_import=True)\n    linhas = db(db.produtos.id > 0).select()\n    produto = []\n    preco = []\n    _id = []\n    figura = []\n    descricao = []\n    for x in linhas:\n        produto.append(x.produto)\n        preco.append(x.preco)\n        _id.append(x.id)\n        figura.append(x.figura)\n        descricao.append(x.descricao)\n    return dict(produtos=zip(_id, produto, descricao, preco,figura), user=auth.user)\n\n@auth.requires_login()\ndef tela_easypay():\n    import requests,json\n    selector = \'\'\'{"selector": {"_id": {"$gt": null},"timestamp": {"$regex": ".*"}},"fields" : ["canal","status_easypay","figura","quantidade","timestamp", "status_comprador", "status_vendedor", "image_name", "item", "valor","_id"], "sort": [{"timestamp": "desc"}]}\'\'\'\n    z = requests.post("https://rcsousa.cloudant.com/easypay/_find", data=selector)\n    result = json.loads(z.text)\n    docs = []\n    for doc in result[\'docs\']:\n        docs.append(doc)\n    return dict(docs=docs, user=auth.user)\n\n@auth.requires_login()\ndef tela_cliente():\n    txid = request.vars.getlist("txid")\n    if not txid:\n        return "Eh preciso informar uma transacao para usar essa funcao"\n    from cloudant.account import Cloudant\n    cloudantDB = "easypay"\n    client = Cloudant("rcsousa", "F@b1m3u@m0r", account="rcsousa")\n    client.connect()\n    db = client[cloudantDB]\n    doc = db[txid[0]]\n    id = doc[\'_id\']\n    item = doc[\'item\']\n    quantidade = doc[\'quantidade\']\n    valor = doc[\'valor\']\n    timestamp = doc[\'timestamp\']\n    figura = doc[\'figura\']\n    result = {"id": id, "item" : item, "quantidade" : quantidade, "valor" : valor, "timestamp" : timestamp, "figura" : figura}\n    return dict(ordem=result, user=auth.user)\n\ndef tela_qrcode():\n    response.flash = T("Welcome to web2py!")\n    return dict(user=auth.user)\n\ndef tela_qrcode_off():\n    txid = request.vars.getlist("txid")\n    return dict(txid=txid[0], user=auth.user)\n\n@auth.requires_login()\ndef produtos():\n    grid=SQLFORM.grid(db.produtos, user_signature=False, formstyle=\'bootstrap3_stacked\')\n    return locals()\n\n@auth.requires_login()\ndef index():\n    response.flash = T("Welcome to web2py!")\n    return dict(user=auth.user)\n\n@auth.requires_login()\ndef undefined():\n    response.flash = T("Welcome to web2py!")\n    return dict(user=auth.user)\n\n@auth.requires_login()\ndef navbar():\n    response.flash = T("Welcome to web2py!")\n    return dict(user=auth.user)\n\ndef user():\n    """\n    exposes:\n    http://..../[app]/default/user/login\n    http://..../[app]/default/user/logout\n    http://..../[app]/default/user/register\n    http://..../[app]/default/user/profile\n    http://..../[app]/default/user/retrieve_password\n    http://..../[app]/default/user/change_password\n    http://..../[app]/default/user/manage_users (requires membership in\n    use @auth.requires_login()\n        @auth.requires_membership(\'group name\')\n        @auth.requires_permission(\'read\',\'table name\',record_id)\n    to decorate functions that need access control\n    """\n    return dict(form=auth())\n\nresponse._vars=response._caller(tela_vendedor)\n'
p7
sS'snapshot'
p8
(dp9
S'exception'
p10
(dp11
S'__hash__'
p12
S"<method-wrapper '__hash__' of exceptions.AttributeError object>"
p13
sS'__setattr__'
p14
S"<method-wrapper '__setattr__' of exceptions.AttributeError object>"
p15
sS'__reduce_ex__'
p16
S'<built-in method __reduce_ex__ of exceptions.AttributeError object>'
p17
sS'__getslice__'
p18
S"<method-wrapper '__getslice__' of exceptions.AttributeError object>"
p19
sS'__getitem__'
p20
S"<method-wrapper '__getitem__' of exceptions.AttributeError object>"
p21
sS'__setstate__'
p22
S'<built-in method __setstate__ of exceptions.AttributeError object>'
p23
sS'args'
p24
S'("\'float\' object has no attribute \'replace\'",)'
p25
sS'__reduce__'
p26
S'<built-in method __reduce__ of exceptions.AttributeError object>'
p27
sS'__str__'
p28
S"<method-wrapper '__str__' of exceptions.AttributeError object>"
p29
sS'__format__'
p30
S'<built-in method __format__ of exceptions.AttributeError object>'
p31
sS'__getattribute__'
p32
S"<method-wrapper '__getattribute__' of exceptions.AttributeError object>"
p33
sS'__class__'
p34
S"<type 'exceptions.AttributeError'>"
p35
sS'__unicode__'
p36
S'<built-in method __unicode__ of exceptions.AttributeError object>'
p37
sS'__delattr__'
p38
S"<method-wrapper '__delattr__' of exceptions.AttributeError object>"
p39
sS'__subclasshook__'
p40
S'<built-in method __subclasshook__ of type object>'
p41
sS'__repr__'
p42
S"<method-wrapper '__repr__' of exceptions.AttributeError object>"
p43
sS'__dict__'
p44
S'{}'
p45
sS'__sizeof__'
p46
S'<built-in method __sizeof__ of exceptions.AttributeError object>'
p47
sS'__doc__'
p48
S"'Attribute not found.'"
p49
sS'__init__'
p50
S"<method-wrapper '__init__' of exceptions.AttributeError object>"
p51
sS'__new__'
p52
S'<built-in method __new__ of type object>'
p53
ssS'evalue'
p54
S"'float' object has no attribute 'replace'"
p55
sS'request'
p56
cgluon.html
XML_unpickle
p57
(S's\xffH\x00\x00<div><table><tr><td style="font-weight:bold;vertical-align:top;">ajax</td><td style="vertical-align:top;">:</td><td><div>False</div></td></tr><tr><td style="font-weight:bold;vertical-align:top;">application</td><td style="vertical-align:top;">:</td><td><div>easypay</div></td></tr><tr><td style="font-weight:bold;vertical-align:top;">args</td><td style="vertical-align:top;">:</td><td><div><table></table></div></td></tr><tr><td style="font-weight:bold;vertical-align:top;">cid</td><td style="vertical-align:top;">:</td><td><div>None</div></td></tr><tr><td style="font-weight:bold;vertical-align:top;">client</td><td style="vertical-align:top;">:</td><td><div>201.83.52.183</div></td></tr><tr><td style="font-weight:bold;vertical-align:top;">controller</td><td style="vertical-align:top;">:</td><td><div>default</div></td></tr><tr><td style="font-weight:bold;vertical-align:top;">cookies</td><td style="vertical-align:top;">:</td><td><div><table><tr><td style="font-weight:bold;vertical-align:top;">session_id_easypay</td><td style="vertical-align:top;">:</td><td><div>201.83.52.183-e9d35f97-e24a-4aa0-901a-21ec9a1a456b<table><tr><td style="font-weight:bold;vertical-align:top;">comment</td><td style="vertical-align:top;">:</td><td><div></div></td></tr><tr><td style="font-weight:bold;vertical-align:top;">domain</td><td style="vertical-align:top;">:</td><td><div></div></td></tr><tr><td style="font-weight:bold;vertical-align:top;">expires</td><td style="vertical-align:top;">:</td><td><div></div></td></tr><tr><td style="font-weight:bold;vertical-align:top;">httponly</td><td style="vertical-align:top;">:</td><td><div></div></td></tr><tr><td style="font-weight:bold;vertical-align:top;">max-age</td><td style="vertical-align:top;">:</td><td><div></div></td></tr><tr><td style="font-weight:bold;vertical-align:top;">path</td><td style="vertical-align:top;">:</td><td><div></div></td></tr><tr><td style="font-weight:bold;vertical-align:top;">secure</td><td style="vertical-align:top;">:</td><td><div></div></td></tr><tr><td style="font-weight:bold;vertical-align:top;">version</td><td style="vertical-align:top;">:</td><td><div></div></td></tr></table></div></td></tr></table></div></td></tr><tr><td style="font-weight:bold;vertical-align:top;">env</td><td style="vertical-align:top;">:</td><td><div><table><tr><td style="font-weight:bold;vertical-align:top;">CONTENT_LENGTH</td><td style="vertical-align:top;">:</td><td><div></div></td></tr><tr><td style="font-weight:bold;vertical-align:top;">CONTENT_TYPE</td><td style="vertical-align:top;">:</td><td><div></div></td></tr><tr><td style="font-weight:bold;vertical-align:top;">DOCUMENT_ROOT</td><td style="vertical-align:top;">:</td><td><div>/usr/local/nginx/html</div></td></tr><tr><td style="font-weight:bold;vertical-align:top;">HTTP_ACCEPT</td><td style="vertical-align:top;">:</td><td><div>text/html,application/xhtml+xml,application/xml;q=0.9,*/*;q=0.8</div></td></tr><tr><td style="font-weight:bold;vertical-align:top;">HTTP_ACCEPT_ENCODING</td><td style="vertical-align:top;">:</td><td><div>gzip, deflate</div></td></tr><tr><td style="font-weight:bold;vertical-align:top;">HTTP_ACCEPT_LANGUAGE</td><td style="vertical-align:top;">:</td><td><div>pt-BR,pt;q=0.8,en-US;q=0.5,en;q=0.3</div></td></tr><tr><td style="font-weight:bold;vertical-align:top;">HTTP_CACHE_CONTROL</td><td style="vertical-align:top;">:</td><td><div>max-age=0</div></td></tr><tr><td style="font-weight:bold;vertical-align:top;">HTTP_CONNECTION</td><td style="vertical-align:top;">:</td><td><div>keep-alive</div></td></tr><tr><td style="font-weight:bold;vertical-align:top;">HTTP_COOKIE</td><td style="vertical-align:top;">:</td><td><div>session_id_easypay=201.83.52.183-e9d35f97-e24a-4aa0-901a-21ec9a1a456b</div></td></tr><tr><td style="font-weight:bold;vertical-align:top;">HTTP_HOST</td><td style="vertical-align:top;">:</td><td><div>easypay.rcsousa.com.br</div></td></tr><tr><td style="font-weight:bold;vertical-align:top;">HTTP_REFERER</td><td style="vertical-align:top;">:</td><td><div>http://easypay.rcsousa.com.br/user/login?_next=/tela_vendedor</div></td></tr><tr><td style="font-weight:bold;vertical-align:top;">HTTP_USER_AGENT</td><td style="vertical-align:top;">:</td><td><div>Mozilla/5.0 (Macintosh; Intel Mac OS X 10.11; rv:46.0) Gecko/20100101 Firefox/46.0</div></td></tr><tr><td style="font-weight:bold;vertical-align:top;">PATH_INFO</td><td style="vertical-align:top;">:</td><td><div>/tela_vendedor</div></td></tr><tr><td style="font-weight:bold;vertical-align:top;">QUERY_STRING</td><td style="vertical-align:top;">:</td><td><div></div></td></tr><tr><td style="font-weight:bold;vertical-align:top;">REMOTE_ADDR</td><td style="vertical-align:top;">:</td><td><div>201.83.52.183</div></td></tr><tr><td style="font-weight:bold;vertical-align:top;">REMOTE_PORT</td><td style="vertical-align:top;">:</td><td><div>51982</div></td></tr><tr><td style="font-weight:bold;vertical-align:top;">REQUEST_METHOD</td><td style="vertical-align:top;">:</td><td><div>GET</div></td></tr><tr><td style="font-weight:bold;vertical-align:top;">REQUEST_URI</td><td style="vertical-align:top;">:</td><td><div>/tela_vendedor</div></td></tr><tr><td style="font-weight:bold;vertical-align:top;">SERVER_NAME</td><td style="vertical-align:top;">:</td><td><div>dev-rcsousa-04</div></td></tr><tr><td style="font-weight:bold;vertical-align:top;">SERVER_PORT</td><td style="vertical-align:top;">:</td><td><div>80</div></td></tr><tr><td style="font-weight:bold;vertical-align:top;">SERVER_PROTOCOL</td><td style="vertical-align:top;">:</td><td><div>HTTP/1.1</div></td></tr><tr><td style="font-weight:bold;vertical-align:top;">SERVER_SOFTWARE</td><td style="vertical-align:top;">:</td><td><div>nginx/1.8.1</div></td></tr><tr><td style="font-weight:bold;vertical-align:top;">UWSGI_SCHEME</td><td style="vertical-align:top;">:</td><td><div>http</div></td></tr><tr><td style="font-weight:bold;vertical-align:top;">app_folders</td><td style="vertical-align:top;">:</td><td><div>set([&#x27;/home/www-data/web2py/applications/easypay/&#x27;, &#x27;/home/www-data/web2py/applications/admin/&#x27;])</div></td></tr><tr><td style="font-weight:bold;vertical-align:top;">applications_parent</td><td style="vertical-align:top;">:</td><td><div>/home/www-data/web2py</div></td></tr><tr><td style="font-weight:bold;vertical-align:top;">content_length</td><td style="vertical-align:top;">:</td><td><div></div></td></tr><tr><td style="font-weight:bold;vertical-align:top;">content_type</td><td style="vertical-align:top;">:</td><td><div></div></td></tr><tr><td style="font-weight:bold;vertical-align:top;">db_sessions</td><td style="vertical-align:top;">:</td><td><div>set([])</div></td></tr><tr><td style="font-weight:bold;vertical-align:top;">debugging</td><td style="vertical-align:top;">:</td><td><div>True</div></td></tr><tr><td style="font-weight:bold;vertical-align:top;">document_root</td><td style="vertical-align:top;">:</td><td><div>/usr/local/nginx/html</div></td></tr><tr><td style="font-weight:bold;vertical-align:top;">gluon_parent</td><td style="vertical-align:top;">:</td><td><div>/home/www-data/web2py</div></td></tr><tr><td style="font-weight:bold;vertical-align:top;">http_accept</td><td style="vertical-align:top;">:</td><td><div>text/html,application/xhtml+xml,application/xml;q=0.9,*/*;q=0.8</div></td></tr><tr><td style="font-weight:bold;vertical-align:top;">http_accept_encoding</td><td style="vertical-align:top;">:</td><td><div>gzip, deflate</div></td></tr><tr><td style="font-weight:bold;vertical-align:top;">http_accept_language</td><td style="vertical-align:top;">:</td><td><div>pt-BR,pt;q=0.8,en-US;q=0.5,en;q=0.3</div></td></tr><tr><td style="font-weight:bold;vertical-align:top;">http_cache_control</td><td style="vertical-align:top;">:</td><td><div>max-age=0</div></td></tr><tr><td style="font-weight:bold;vertical-align:top;">http_connection</td><td style="vertical-align:top;">:</td><td><div>keep-alive</div></td></tr><tr><td style="font-weight:bold;vertical-align:top;">http_cookie</td><td style="vertical-align:top;">:</td><td><div>session_id_easypay=201.83.52.183-e9d35f97-e24a-4aa0-901a-21ec9a1a456b</div></td></tr><tr><td style="font-weight:bold;vertical-align:top;">http_host</td><td style="vertical-align:top;">:</td><td><div>easypay.rcsousa.com.br</div></td></tr><tr><td style="font-weight:bold;vertical-align:top;">http_referer</td><td style="vertical-align:top;">:</td><td><div>http://easypay.rcsousa.com.br/user/login?_next=/tela_vendedor</div></td></tr><tr><td style="font-weight:bold;vertical-align:top;">http_user_agent</td><td style="vertical-align:top;">:</td><td><div>Mozilla/5.0 (Macintosh; Intel Mac OS X 10.11; rv:46.0) Gecko/20100101 Firefox/46.0</div></td></tr><tr><td style="font-weight:bold;vertical-align:top;">is_jython</td><td style="vertical-align:top;">:</td><td><div>False</div></td></tr><tr><td style="font-weight:bold;vertical-align:top;">is_pypy</td><td style="vertical-align:top;">:</td><td><div>False</div></td></tr><tr><td style="font-weight:bold;vertical-align:top;">is_source</td><td style="vertical-align:top;">:</td><td><div>True</div></td></tr><tr><td style="font-weight:bold;vertical-align:top;">local_hosts</td><td style="vertical-align:top;">:</td><td><div><table><tr><td><div>::1</div></td></tr><tr><td><div>localhost</div></td></tr><tr><td><div>::ffff:127.0.0.1</div></td></tr><tr><td><div>127.0.0.1</div></td></tr><tr><td><div>dev-rcsousa-04</div></td></tr></table></div></td></tr><tr><td style="font-weight:bold;vertical-align:top;">path_info</td><td style="vertical-align:top;">:</td><td><div>/tela_vendedor</div></td></tr><tr><td style="font-weight:bold;vertical-align:top;">query_string</td><td style="vertical-align:top;">:</td><td><div></div></td></tr><tr><td style="font-weight:bold;vertical-align:top;">remote_addr</td><td style="vertical-align:top;">:</td><td><div>201.83.52.183</div></td></tr><tr><td style="font-weight:bold;vertical-align:top;">remote_port</td><td style="vertical-align:top;">:</td><td><div>51982</div></td></tr><tr><td style="font-weight:bold;vertical-align:top;">request_method</td><td style="vertical-align:top;">:</td><td><div>GET</div></td></tr><tr><td style="font-weight:bold;vertical-align:top;">request_uri</td><td style="vertical-align:top;">:</td><td><div>/easypay/default/tela_vendedor</div></td></tr><tr><td style="font-weight:bold;vertical-align:top;">server_name</td><td style="vertical-align:top;">:</td><td><div>dev-rcsousa-04</div></td></tr><tr><td style="font-weight:bold;vertical-align:top;">server_port</td><td style="vertical-align:top;">:</td><td><div>80</div></td></tr><tr><td style="font-weight:bold;vertical-align:top;">server_protocol</td><td style="vertical-align:top;">:</td><td><div>HTTP/1.1</div></td></tr><tr><td style="font-weight:bold;vertical-align:top;">server_software</td><td style="vertical-align:top;">:</td><td><div>nginx/1.8.1</div></td></tr><tr><td style="font-weight:bold;vertical-align:top;">uwsgi.node</td><td style="vertical-align:top;">:</td><td><div>dev-rcsousa-04</div></td></tr><tr><td style="font-weight:bold;vertical-align:top;">uwsgi.version</td><td style="vertical-align:top;">:</td><td><div>2.0.10</div></td></tr><tr><td style="font-weight:bold;vertical-align:top;">uwsgi_node</td><td style="vertical-align:top;">:</td><td><div>dev-rcsousa-04</div></td></tr><tr><td style="font-weight:bold;vertical-align:top;">uwsgi_scheme</td><td style="vertical-align:top;">:</td><td><div>http</div></td></tr><tr><td style="font-weight:bold;vertical-align:top;">uwsgi_version</td><td style="vertical-align:top;">:</td><td><div>2.0.10</div></td></tr><tr><td style="font-weight:bold;vertical-align:top;">web2py_original_uri</td><td style="vertical-align:top;">:</td><td><div>/tela_vendedor</div></td></tr><tr><td style="font-weight:bold;vertical-align:top;">web2py_path</td><td style="vertical-align:top;">:</td><td><div>/home/www-data/web2py</div></td></tr><tr><td style="font-weight:bold;vertical-align:top;">web2py_version</td><td style="vertical-align:top;">:</td><td><div>2.9.12-stable+timestamp.2015.01.17.06.11.03</div></td></tr><tr><td style="font-weight:bold;vertical-align:top;">wsgi.errors</td><td style="vertical-align:top;">:</td><td><div>&lt;open file &#x27;wsgi_errors&#x27;, mode &#x27;w&#x27; at 0x7fd8f9d72ae0&gt;</div></td></tr><tr><td style="font-weight:bold;vertical-align:top;">wsgi.file_wrapper</td><td style="vertical-align:top;">:</td><td><div>&lt;built-in function uwsgi_sendfile&gt;</div></td></tr><tr><td style="font-weight:bold;vertical-align:top;">wsgi.input</td><td style="vertical-align:top;">:</td><td><div>&lt;uwsgi._Input object at 0x7fd901ca6eb8&gt;</div></td></tr><tr><td style="font-weight:bold;vertical-align:top;">wsgi.multiprocess</td><td style="vertical-align:top;">:</td><td><div>True</div></td></tr><tr><td style="font-weight:bold;vertical-align:top;">wsgi.multithread</td><td style="vertical-align:top;">:</td><td><div>False</div></td></tr><tr><td style="font-weight:bold;vertical-align:top;">wsgi.run_once</td><td style="vertical-align:top;">:</td><td><div>False</div></td></tr><tr><td style="font-weight:bold;vertical-align:top;">wsgi.url_scheme</td><td style="vertical-align:top;">:</td><td><div>http</div></td></tr><tr><td style="font-weight:bold;vertical-align:top;">wsgi.version</td><td style="vertical-align:top;">:</td><td><div><table><tr><td><div>1</div></td></tr><tr><td><div>0</div></td></tr></table></div></td></tr><tr><td style="font-weight:bold;vertical-align:top;">wsgi_errors</td><td style="vertical-align:top;">:</td><td><div>&lt;open file &#x27;wsgi_errors&#x27;, mode &#x27;w&#x27; at 0x7fd8f9d72ae0&gt;</div></td></tr><tr><td style="font-weight:bold;vertical-align:top;">wsgi_file_wrapper</td><td style="vertical-align:top;">:</td><td><div>&lt;built-in function uwsgi_sendfile&gt;</div></td></tr><tr><td style="font-weight:bold;vertical-align:top;">wsgi_input</td><td style="vertical-align:top;">:</td><td><div>&lt;uwsgi._Input object at 0x7fd901ca6eb8&gt;</div></td></tr><tr><td style="font-weight:bold;vertical-align:top;">wsgi_multiprocess</td><td style="vertical-align:top;">:</td><td><div>True</div></td></tr><tr><td style="font-weight:bold;vertical-align:top;">wsgi_multithread</td><td style="vertical-align:top;">:</td><td><div>False</div></td></tr><tr><td style="font-weight:bold;vertical-align:top;">wsgi_run_once</td><td style="vertical-align:top;">:</td><td><div>False</div></td></tr><tr><td style="font-weight:bold;vertical-align:top;">wsgi_url_scheme</td><td style="vertical-align:top;">:</td><td><div>http</div></td></tr><tr><td style="font-weight:bold;vertical-align:top;">wsgi_version</td><td style="vertical-align:top;">:</td><td><div><table><tr><td><div>1</div></td></tr><tr><td><div>0</div></td></tr></table></div></td></tr></table></div></td></tr><tr><td style="font-weight:bold;vertical-align:top;">extension</td><td style="vertical-align:top;">:</td><td><div>html</div></td></tr><tr><td style="font-weight:bold;vertical-align:top;">folder</td><td style="vertical-align:top;">:</td><td><div>/home/www-data/web2py/applications/easypay/</div></td></tr><tr><td style="font-weight:bold;vertical-align:top;">function</td><td style="vertical-align:top;">:</td><td><div>tela_vendedor</div></td></tr><tr><td style="font-weight:bold;vertical-align:top;">global_settings</td><td style="vertical-align:top;">:</td><td><div><table><tr><td style="font-weight:bold;vertical-align:top;">app_folders</td><td style="vertical-align:top;">:</td><td><div>set([&#x27;/home/www-data/web2py/applications/easypay/&#x27;, &#x27;/home/www-data/web2py/applications/admin/&#x27;])</div></td></tr><tr><td style="font-weight:bold;vertical-align:top;">applications_parent</td><td style="vertical-align:top;">:</td><td><div>/home/www-data/web2py</div></td></tr><tr><td style="font-weight:bold;vertical-align:top;">db_sessions</td><td style="vertical-align:top;">:</td><td><div>set([])</div></td></tr><tr><td style="font-weight:bold;vertical-align:top;">debugging</td><td style="vertical-align:top;">:</td><td><div>True</div></td></tr><tr><td style="font-weight:bold;vertical-align:top;">gluon_parent</td><td style="vertical-align:top;">:</td><td><div>/home/www-data/web2py</div></td></tr><tr><td style="font-weight:bold;vertical-align:top;">is_jython</td><td style="vertical-align:top;">:</td><td><div>False</div></td></tr><tr><td style="font-weight:bold;vertical-align:top;">is_pypy</td><td style="vertical-align:top;">:</td><td><div>False</div></td></tr><tr><td style="font-weight:bold;vertical-align:top;">is_source</td><td style="vertical-align:top;">:</td><td><div>True</div></td></tr><tr><td style="font-weight:bold;vertical-align:top;">local_hosts</td><td style="vertical-align:top;">:</td><td><div><table><tr><td><div>::1</div></td></tr><tr><td><div>localhost</div></td></tr><tr><td><div>::ffff:127.0.0.1</div></td></tr><tr><td><div>127.0.0.1</div></td></tr><tr><td><div>dev-rcsousa-04</div></td></tr></table></div></td></tr><tr><td style="font-weight:bold;vertical-align:top;">web2py_version</td><td style="vertical-align:top;">:</td><td><div>2.9.12-stable+timestamp.2015.01.17.06.11.03</div></td></tr></table></div></td></tr><tr><td style="font-weight:bold;vertical-align:top;">is_https</td><td style="vertical-align:top;">:</td><td><div>False</div></td></tr><tr><td style="font-weight:bold;vertical-align:top;">is_local</td><td style="vertical-align:top;">:</td><td><div>False</div></td></tr><tr><td style="font-weight:bold;vertical-align:top;">is_restful</td><td style="vertical-align:top;">:</td><td><div>False</div></td></tr><tr><td style="font-weight:bold;vertical-align:top;">is_sheduler</td><td style="vertical-align:top;">:</td><td><div>None</div></td></tr><tr><td style="font-weight:bold;vertical-align:top;">is_shell</td><td style="vertical-align:top;">:</td><td><div>None</div></td></tr><tr><td style="font-weight:bold;vertical-align:top;">now</td><td style="vertical-align:top;">:</td><td><div>datetime.datetime(2016, 5, 15, 14, 27, 35, 625210)</div></td></tr><tr><td style="font-weight:bold;vertical-align:top;">url</td><td style="vertical-align:top;">:</td><td><div>/tela_vendedor</div></td></tr><tr><td style="font-weight:bold;vertical-align:top;">utcnow</td><td style="vertical-align:top;">:</td><td><div>datetime.datetime(2016, 5, 15, 18, 27, 35, 625238)</div></td></tr><tr><td style="font-weight:bold;vertical-align:top;">uuid</td><td style="vertical-align:top;">:</td><td><div>easypay/201.83.52.183.2016-05-15.14-27-35.f36d453b-a713-49f3-be97-1fe0e2756a02</div></td></tr><tr><td style="font-weight:bold;vertical-align:top;">wsgi</td><td style="vertical-align:top;">:</td><td><div>&lt;gluon.main.LazyWSGI object at 0x7fd8f6c68e90&gt;</div></td></tr></table></div>'
tRp58
sS'frames'
p59
(lp60
(dp61
S'file'
p62
S'/home/www-data/web2py/gluon/restricted.py'
p63
sS'dump'
p64
(dp65
S'environment'
p66
S"{'A': <class 'gluon.html.A'>, 'ANY_OF': <class 'gluon.validators.ANY_OF'>, 'ASSIGNJS': <function ASSIGNJS>, 'Auth': <class 'gluon.tools.Auth'>, 'B': <class 'gluon.html.B'>, 'BEAUTIFY': <class 'gluon.html.BEAUTIFY'>, 'BODY': <class 'gluon.html.BODY'>, 'BR': <class 'gluon.html.BR'>, 'BUTTON': <class 'gluon.html.BUTTON'>, 'CAT': <class 'gluon.html.CAT'>, ...}"
p67
sS'ccode'
p68
S'<code object <module> at 0x7fd8f5844ab0, file "/...ications/easypay/controllers/default.py", line 5>'
p69
ssS'lnum'
p70
I224
sS'lines'
p71
(dp72
I224
S'        exec ccode in environment'
p73
sI225
S'    except HTTP:'
p74
sI226
S'        raise'
p75
sI227
S'    except RestrictedError:'
p76
sI228
S'        # do not encapsulate (obfuscate) the original RestrictedError'
p77
sI219
S'    try:'
p78
sI220
S'        if isinstance(code, types.CodeType):'
p79
sI221
S'            ccode = code'
p80
sI222
S'        else:'
p81
sI223
S'            ccode = compile2(code, layer)'
p82
ssS'call'
p83
S"(code='#from bottle import request, run, post, tob, rou...\\n\\nresponse._vars=response._caller(tela_vendedor)\\n', environment={'A': <class 'gluon.html.A'>, 'ANY_OF': <class 'gluon.validators.ANY_OF'>, 'ASSIGNJS': <function ASSIGNJS>, 'Auth': <class 'gluon.tools.Auth'>, 'B': <class 'gluon.html.B'>, 'BEAUTIFY': <class 'gluon.html.BEAUTIFY'>, 'BODY': <class 'gluon.html.BODY'>, 'BR': <class 'gluon.html.BR'>, 'BUTTON': <class 'gluon.html.BUTTON'>, 'CAT': <class 'gluon.html.CAT'>, ...}, layer='/home/www-data/web2py/applications/easypay/controllers/default.py')"
p84
sS'func'
p85
S'restricted'
p86
sa(dp87
g62
S'/home/www-data/web2py/applications/easypay/controllers/default.py'
p88
sg64
(dp89
sg70
I169
sg71
(dp90
I160
S'    http://..../[app]/default/user/change_password'
p91
sI161
S'    http://..../[app]/default/user/manage_users (requires membership in'
p92
sI162
S'    use @auth.requires_login()'
p93
sI163
S"        @auth.requires_membership('group name')"
p94
sI164
S"        @auth.requires_permission('read','table name',record_id)"
p95
sI165
S'    to decorate functions that need access control'
p96
sI166
S'    """'
p97
sI167
S'    return dict(form=auth())'
p98
sI158
S'    http://..../[app]/default/user/profile'
p99
sI159
S'    http://..../[app]/default/user/retrieve_password'
p100
ssg83
S'()'
p101
sg85
S'<module>'
p102
sa(dp103
g62
S'/home/www-data/web2py/gluon/globals.py'
p104
sg64
(dp105
S'self'
p106
S'undefined'
p107
sS'f'
S'<function tela_vendedor>'
p108
ssg70
I393
sg71
(dp109
I388
S"        self.flash = ''            # used by the default view layout"
p110
sI389
S'        self.meta = Storage()      # used by web2py_ajax.html'
p111
sI390
S'        self.menu = []             # used by the default view layout'
p112
sI391
S'        self.files = []            # used by web2py_ajax.html'
p113
sI392
S'        self._vars = None'
p114
sI393
S'        self._caller = lambda f: f()'
p115
sI394
S'        self._view_environment = None'
p116
sI395
S'        self._custom_commit = None'
p117
sI396
S'        self._custom_rollback = None'
p118
sI397
S"        self.generic_patterns = ['*']"
p119
ssg83
S'(f=<function tela_vendedor>)'
p120
sg85
S'<lambda>'
p121
sa(dp122
g62
S'/home/www-data/web2py/gluon/tools.py'
p123
sg64
(dp124
S'action'
p125
S'<function tela_vendedor>'
p126
sS'a'
S'()'
p127
sS'b'
g45
ssg70
I3444
sg71
(dp128
I3439
S'                    flag = condition'
p129
sI3440
S'                if not flag:'
p130
sI3441
S'                    current.session.flash = self.messages.access_denied'
p131
sI3442
S'                    return call_or_redirect('
p132
sI3443
S'                        self.settings.on_failed_authorization)'
p133
sI3444
S'                return action(*a, **b)'
p134
sI3445
S'            f.__doc__ = action.__doc__'
p135
sI3446
S'            f.__name__ = action.__name__'
p136
sI3447
S'            f.__dict__.update(action.__dict__)'
p137
sI3448
S'            return f'
p138
ssg83
S'(*a=(), **b={})'
p139
sg85
S'f'
sa(dp140
g62
S'/home/www-data/web2py/applications/easypay/controllers/default.py'
p141
sg64
(dp142
S'figura'
p143
S"['produtos.figura.b5dc69dbdb53c837.3438393638365f676466662e706e67.png', 'produtos.figura.bff6e98ddac8e30b.3438393637395f366534343936303130322d5265636f76657265642e706e67.png', 'produtos.figura.8d62aadd75e61f5c.3936343637315f626163363633303865662e6a7067.jpg', 'produtos.figura.ac48bb585b6fb54d.32393634345f436...f4261636b5f746f5f7468655f4675747572652e706e67.png', 'produtos.figura.a4ea5038627da936.3438353832365f3...974616e66616c6c2d61746f726173752d67672e706e67.png', 'produtos.figura.9020d9f0e8cfaf23.3530323737325f636635376263303362662e706e67.png', 'produtos.figura.8637fc6ef2e6232f.3534343831335f6172616e68612d6c6f676f2e706e67.png', 'produtos.figura.a1a301fdbae621c3.3530313933385f63616d69736574615f6e65776572615f303232352e706e67.png', 'produtos.figura.8ebfd052be0096b7.3937313236345f6...4656164706f6f6c5f6d657263656e617279312e6a7067.jpg', 'produtos.figura.8e3d2bf19dfa8051.68656c6c626f792e706e67.png']"
p144
sS'_id'
p145
S'[7L, 8L, 9L, 10L, 11L, 12L, 13L, 14L, 15L, 16L]'
p146
sS'builtinzip'
p147
S'<built-in function zip>'
p148
sS'docs'
p149
S"[{u'_id': u'3ac5d0b03061af88513472892acd7a6ac1cc03522f05bbaf94d7774d0bfb10b7', u'canal': u'caixa-1', u'figura': [u'produtos.figura.b5dc69dbdb53c837.3438393638365f676466662e706e67.png', u'produtos.figura.bff6e98ddac8e30b.3438393637395...34343936303130322d5265636f76657265642e706e67.png', u'produtos.figura.8d62aadd75e61f5c.3936343637315f626163363633303865662e6a7067.jpg'], u'image_name': u'd2ca18676c9d9bc1bea895df70214a7e64fb7d84412337f18c8d631f015beaa2', u'item': [u'Camiseta Express\\xf5es Darth Vader', u'Camiseta Unissex Logo Imp\\xe9rio Star Wars', u'Camiseta Star Wars Trooper Helmet'], u'quantidade': u'1', u'status_comprador': u'Pendente', u'status_easypay': u'Pendente', u'status_vendedor': u'Aprovado', u'timestamp': u'2016-05-15 13:19:56', ...}, {u'_id': u'93cfec93f77c60751e888965f69e491ade97e02e1a08716ce5815357448d24e9', u'canal': u'caixa-1', u'figura': [u'produtos.figura.a1a301fdbae621c3.3530313933385...6d69736574615f6e65776572615f303232352e706e67.png'], u'image_name': u'80942b336a6900f69619f86571f1d7f10f789252a526bc328dbc4a584d0b5c93', u'item': [u'Camiseta Pinguim Marrom New Era'], u'quantidade': u'1', u'status_comprador': u'Pendente', u'status_easypay': u'Pendente', u'status_vendedor': u'Aprovado', u'timestamp': u'2016-05-15 12:44:55', ...}]"
p150
sS').replace'
p151
g107
sS'produto'
p152
S"['Camiseta Express\\xc3\\xb5es Darth Vader', 'Camiseta Unissex Logo Imp\\xc3\\xa9rio Star Wars', 'Camiseta Star Wars Trooper Helmet', 'Camiseta Vintage Flux Capacitor Back to the Future', 'Camiseta Titanfall Atorasu Vintage Logo', 'Camiseta Better Call Saul! Breaking Bad', 'Camiseta Homem Aranha Logo Marvel', 'Camiseta Pinguim Marrom New Era', 'CAMISETA DEADPOOL MERCENARY', 'CAMISETA HELLBOY LOGO']"
p153
sS'global user'
p154
S'<function user>'
p155
sS'global auth'
p156
S'<gluon.tools.Auth object>'
p157
sS'auth.user'
p158
S"<Row {'username': 'rcsousa', 'first_name': 'Rica...word_key': '', 'registration_key': '', 'id': 1L}>"
p159
sS'builtinsum'
p160
S'<built-in function sum>'
p161
sS'builtinfloat'
p162
S"<type 'float'>"
p163
sS'preco'
p164
S"['79,90', '69,90', '79,90', '69,90', '34,90', '79,90', '79,90', '139,90', '79,90', '79,90']"
p165
sS'total'
p166
S"[u'79.90', u'69.90', u'79.90', u'139.90']"
p167
sS'builtindict'
p168
S"<type 'dict'>"
p169
sS'builtinmap'
p170
S'<built-in function map>'
p171
ssg70
I39
sg71
(dp172
I34
S"    for doc in result['docs']:"
p173
sI35
S'        docs.append(doc)'
p174
sI36
S'    for x in docs:'
p175
sI37
S"        for y in x['valor']:"
p176
sI38
S"            total.append(y.replace(',','.'))"
p177
sI39
S"    return dict(docs=docs, total=sum(map(float,total)).replace('.',','), produto=zip(_id, produto, preco,figura), user=auth.user)"
p178
sI40
S''
sI41
S'@auth.requires_login()'
p179
sI42
S'def lista_de_produtos():'
p180
sI43
S'    import os'
p181
ssg83
S'()'
p182
sg85
S'tela_vendedor'
p183
sasS'pyver'
p184
S'Python 2.7.6: /usr/local/bin/uwsgi (prefix: /usr)'
p185
sS'session'
p186
g57
(S's{\t\x00\x00<div><table><tr><td style="font-weight:bold;vertical-align:top;">auth</td><td style="vertical-align:top;">:</td><td><div><table><tr><td style="font-weight:bold;vertical-align:top;">expiration</td><td style="vertical-align:top;">:</td><td><div>3600</div></td></tr><tr><td style="font-weight:bold;vertical-align:top;">hmac_key</td><td style="vertical-align:top;">:</td><td><div>76be9895-2bf5-43ce-8021-7d5cf0053e8c</div></td></tr><tr><td style="font-weight:bold;vertical-align:top;">last_visit</td><td style="vertical-align:top;">:</td><td><div>datetime.datetime(2016, 5, 15, 14, 26, 46, 296041)</div></td></tr><tr><td style="font-weight:bold;vertical-align:top;">remember_me</td><td style="vertical-align:top;">:</td><td><div>False</div></td></tr><tr><td style="font-weight:bold;vertical-align:top;">user</td><td style="vertical-align:top;">:</td><td><div><table><tr><td style="font-weight:bold;vertical-align:top;">email</td><td style="vertical-align:top;">:</td><td><div>ricardo.c.sousa@gmail.com</div></td></tr><tr><td style="font-weight:bold;vertical-align:top;">first_name</td><td style="vertical-align:top;">:</td><td><div>Ricardo</div></td></tr><tr><td style="font-weight:bold;vertical-align:top;">id</td><td style="vertical-align:top;">:</td><td><div>1L</div></td></tr><tr><td style="font-weight:bold;vertical-align:top;">last_name</td><td style="vertical-align:top;">:</td><td><div>Coelho</div></td></tr><tr><td style="font-weight:bold;vertical-align:top;">registration_id</td><td style="vertical-align:top;">:</td><td><div></div></td></tr><tr><td style="font-weight:bold;vertical-align:top;">registration_key</td><td style="vertical-align:top;">:</td><td><div></div></td></tr><tr><td style="font-weight:bold;vertical-align:top;">reset_password_key</td><td style="vertical-align:top;">:</td><td><div></div></td></tr><tr><td style="font-weight:bold;vertical-align:top;">username</td><td style="vertical-align:top;">:</td><td><div>rcsousa</div></td></tr></table></div></td></tr><tr><td style="font-weight:bold;vertical-align:top;">user_groups</td><td style="vertical-align:top;">:</td><td><div><table><tr><td style="font-weight:bold;vertical-align:top;">1</td><td style="vertical-align:top;">:</td><td><div>user_1</div></td></tr></table></div></td></tr></table></div></td></tr><tr><td style="font-weight:bold;vertical-align:top;">flash</td><td style="vertical-align:top;">:</td><td><div>None</div></td></tr></table></div>'
tRp187
sS'etype'
p188
S"<type 'exceptions.AttributeError'>"
p189
sS'date'
p190
S'Sun May 15 14:27:35 2016'
p191
sS'response'
p192
g57
(S's?2\x00\x00<div><table><tr><td style="font-weight:bold;vertical-align:top;">body</td><td style="vertical-align:top;">:</td><td><div>&lt;cStringIO.StringO object at 0x7fd8f5906458&gt;</div></td></tr><tr><td style="font-weight:bold;vertical-align:top;">cookies</td><td style="vertical-align:top;">:</td><td><div><table><tr><td style="font-weight:bold;vertical-align:top;">session_id_easypay</td><td style="vertical-align:top;">:</td><td><div>201.83.52.183-e9d35f97-e24a-4aa0-901a-21ec9a1a456b<table><tr><td style="font-weight:bold;vertical-align:top;">comment</td><td style="vertical-align:top;">:</td><td><div></div></td></tr><tr><td style="font-weight:bold;vertical-align:top;">domain</td><td style="vertical-align:top;">:</td><td><div></div></td></tr><tr><td style="font-weight:bold;vertical-align:top;">expires</td><td style="vertical-align:top;">:</td><td><div></div></td></tr><tr><td style="font-weight:bold;vertical-align:top;">httponly</td><td style="vertical-align:top;">:</td><td><div></div></td></tr><tr><td style="font-weight:bold;vertical-align:top;">max-age</td><td style="vertical-align:top;">:</td><td><div></div></td></tr><tr><td style="font-weight:bold;vertical-align:top;">path</td><td style="vertical-align:top;">:</td><td><div>/</div></td></tr><tr><td style="font-weight:bold;vertical-align:top;">secure</td><td style="vertical-align:top;">:</td><td><div></div></td></tr><tr><td style="font-weight:bold;vertical-align:top;">version</td><td style="vertical-align:top;">:</td><td><div></div></td></tr></table></div></td></tr></table></div></td></tr><tr><td style="font-weight:bold;vertical-align:top;">delimiters</td><td style="vertical-align:top;">:</td><td><div><table><tr><td><div>{{</div></td></tr><tr><td><div>}}</div></td></tr></table></div></td></tr><tr><td style="font-weight:bold;vertical-align:top;">files</td><td style="vertical-align:top;">:</td><td><div><table></table></div></td></tr><tr><td style="font-weight:bold;vertical-align:top;">flash</td><td style="vertical-align:top;">:</td><td><div></div></td></tr><tr><td style="font-weight:bold;vertical-align:top;">form_label_separator</td><td style="vertical-align:top;">:</td><td><div>: </div></td></tr><tr><td style="font-weight:bold;vertical-align:top;">formstyle</td><td style="vertical-align:top;">:</td><td><div>table3cols</div></td></tr><tr><td style="font-weight:bold;vertical-align:top;">generic_patterns</td><td style="vertical-align:top;">:</td><td><div><table></table></div></td></tr><tr><td style="font-weight:bold;vertical-align:top;">google_analytics_id</td><td style="vertical-align:top;">:</td><td><div>None</div></td></tr><tr><td style="font-weight:bold;vertical-align:top;">headers</td><td style="vertical-align:top;">:</td><td><div><table><tr><td style="font-weight:bold;vertical-align:top;">X-Powered-By</td><td style="vertical-align:top;">:</td><td><div>web2py</div></td></tr></table></div></td></tr><tr><td style="font-weight:bold;vertical-align:top;">logo</td><td style="vertical-align:top;">:</td><td><div><a class="brand" href="http://www.web2py.com/"><b>web<span>2</span>py</b>&trade;&nbsp;</a></div></td></tr><tr><td style="font-weight:bold;vertical-align:top;">menu</td><td style="vertical-align:top;">:</td><td><div><table><tr><td><div><table><tr><td><div>Principal</div></td></tr><tr><td><div>False</div></td></tr><tr><td><div>/</div></td></tr><tr><td><div><table></table></div></td></tr></table></div></td></tr><tr><td><div><table><tr><td><div><span class="highlighted">web2py</span></div></td></tr><tr><td><div>False</div></td></tr><tr><td><div>http://web2py.com</div></td></tr><tr><td><div><table><tr><td><div><table><tr><td><div>Meus sites</div></td></tr><tr><td><div>False</div></td></tr><tr><td><div>/admin/site</div></td></tr></table></div></td></tr><tr><td><div><table><tr><td><div>Esta aplica\xc3\xa7\xc3\xa3o</div></td></tr><tr><td><div>False</div></td></tr><tr><td><div>/admin/design/easypay</div></td></tr><tr><td><div>[(&lt;lazyT &#x27;Controller&#x27;&gt;, False, &#x27;/admin/edit/easypay/controllers/default.py&#x27;), (&lt;lazyT &#x27;View&#x27;&gt;, False, &#x27;/admin/edit/easypay/views/default/tela_vendedor.html&#x27;), (&lt;lazyT &#x27;Layout&#x27;&gt;, False, &#x27;/admin/edit/easypay/views/layout.html&#x27;), (&lt;lazyT &#x27;Stylesheet&#x27;&gt;, False, &#x27;/admin/edit/easypay/static/css/web2py.css&#x27;), (&lt;lazyT &#x27;DB Model&#x27;&gt;, False, &#x27;/admin/edit/easypay/models/db.py&#x27;), (&lt;lazyT &#x27;Menu Model&#x27;&gt;, False, &#x27;/admin/edit/easypay/models/menu.py&#x27;), (&lt;lazyT &#x27;Database&#x27;&gt;, False, &#x27;/appadmin&#x27;), (&lt;lazyT &#x27;Errors&#x27;&gt;, False, &#x27;/admin/errors/easypay&#x27;), (&lt;lazyT &#x27;About&#x27;&gt;, False, &#x27;/admin/about/easypay&#x27;)]</div></td></tr></table></div></td></tr><tr><td><div><table><tr><td><div>web2py.com</div></td></tr><tr><td><div>False</div></td></tr><tr><td><div>http://www.web2py.com</div></td></tr><tr><td><div>[(&lt;lazyT &#x27;Download&#x27;&gt;, False, &#x27;http://www.web2py.com/examples/default/download&#x27;), (&lt;lazyT &#x27;Support&#x27;&gt;, False, &#x27;http://www.web2py.com/examples/default/support&#x27;), (&lt;lazyT &#x27;Demo&#x27;&gt;, False, &#x27;http://web2py.com/demo_admin&#x27;), (&lt;lazyT &#x27;Quick Examples&#x27;&gt;, False, &#x27;http://web2py.com/examples/default/examples&#x27;), (&lt;lazyT &#x27;FAQ&#x27;&gt;, False, &#x27;http://web2py.com/AlterEgo&#x27;), (&lt;lazyT &#x27;Videos&#x27;&gt;, False, &#x27;http://www.web2py.com/examples/default/videos/&#x27;), (&lt;lazyT &#x27;Free Applications&#x27;&gt;, False, &#x27;http://web2py.com/appliances&#x27;), (&lt;lazyT &#x27;Plugins&#x27;&gt;, False, &#x27;http://web2py.com/plugins&#x27;), (&lt;lazyT &#x27;Layouts&#x27;&gt;, False, &#x27;http://web2py.com/layouts&#x27;), (&lt;lazyT &#x27;Recipes&#x27;&gt;, False, &#x27;http://web2pyslices.com/&#x27;), (&lt;lazyT &#x27;Semantic&#x27;&gt;, False, &#x27;http://web2py.com/semantic&#x27;)]</div></td></tr></table></div></td></tr><tr><td><div><table><tr><td><div>Documenta\xc3\xa7\xc3\xa3o</div></td></tr><tr><td><div>False</div></td></tr><tr><td><div>http://www.web2py.com/book</div></td></tr><tr><td><div>[(&lt;lazyT &#x27;Preface&#x27;&gt;, False, &#x27;http://www.web2py.com/book/default/chapter/00&#x27;), (&lt;lazyT &#x27;Introduction&#x27;&gt;, False, &#x27;http://www.web2py.com/book/default/chapter/01&#x27;), (&lt;lazyT &#x27;Python&#x27;&gt;, False, &#x27;http://www.web2py.com/book/default/chapter/02&#x27;), (&lt;lazyT &#x27;Overview&#x27;&gt;, False, &#x27;http://www.web2py.com/book/default/chapter/03&#x27;), (&lt;lazyT &#x27;The Core&#x27;&gt;, False, &#x27;http://www.web2py.com/book/default/chapter/04&#x27;), (&lt;lazyT &#x27;The Views&#x27;&gt;, False, &#x27;http://www.web2py.com/book/default/chapter/05&#x27;), (&lt;lazyT &#x27;Database&#x27;&gt;, False, &#x27;http://www.web2py.com/book/default/chapter/06&#x27;), (&lt;lazyT &#x27;Forms and Validators&#x27;&gt;, False, &#x27;http://www.web2py.com/book/default/chapter/07&#x27;), (&lt;lazyT &#x27;Email and SMS&#x27;&gt;, False, &#x27;http://www.web2py.com/book/default/chapter/08&#x27;), (&lt;lazyT &#x27;Access Control&#x27;&gt;, False, &#x27;http://www.web2py.com/book/default/chapter/09&#x27;), (&lt;lazyT &#x27;Services&#x27;&gt;, False, &#x27;http://www.web2py.com/book/default/chapter/10&#x27;), (&lt;lazyT &#x27;Ajax Recipes&#x27;&gt;, False, &#x27;http://www.web2py.com/book/default/chapter/11&#x27;), (&lt;lazyT &#x27;Components and Plugins&#x27;&gt;, False, &#x27;http://www.web2py.com/book/default/chapter/12&#x27;), (&lt;lazyT &#x27;Deployment Recipes&#x27;&gt;, False, &#x27;http://www.web2py.com/book/default/chapter/13&#x27;), (&lt;lazyT &#x27;Other Recipes&#x27;&gt;, False, &#x27;http://www.web2py.com/book/default/chapter/14&#x27;), (&lt;lazyT &#x27;Buy this book&#x27;&gt;, False, &#x27;http://stores.lulu.com/web2py&#x27;)]</div></td></tr></table></div></td></tr><tr><td><div><table><tr><td><div>Comunidade</div></td></tr><tr><td><div>False</div></td></tr><tr><td><div>None</div></td></tr><tr><td><div>[(&lt;lazyT &#x27;Groups&#x27;&gt;, False, &#x27;http://www.web2py.com/examples/default/usergroups&#x27;), (&lt;lazyT &#x27;Twitter&#x27;&gt;, False, &#x27;http://twitter.com/web2py&#x27;), (&lt;lazyT &#x27;Live Chat&#x27;&gt;, False, &#x27;http://webchat.freenode.net/?channels=web2py&#x27;)]</div></td></tr></table></div></td></tr><tr><td><div><table><tr><td><div>Plugins</div></td></tr><tr><td><div>False</div></td></tr><tr><td><div>None</div></td></tr><tr><td><div>[(&#x27;plugin_wiki&#x27;, False, &#x27;http://web2py.com/examples/default/download&#x27;), (&lt;lazyT &#x27;Other Plugins&#x27;&gt;, False, &#x27;http://web2py.com/plugins&#x27;), (&lt;lazyT &#x27;Layout Plugins&#x27;&gt;, False, &#x27;http://web2py.com/layouts&#x27;)]</div></td></tr></table></div></td></tr></table></div></td></tr></table></div></td></tr></table></div></td></tr><tr><td style="font-weight:bold;vertical-align:top;">meta</td><td style="vertical-align:top;">:</td><td><div><table><tr><td style="font-weight:bold;vertical-align:top;">author</td><td style="vertical-align:top;">:</td><td><div>Your Name &lt;you@example.com&gt;</div></td></tr><tr><td style="font-weight:bold;vertical-align:top;">generator</td><td style="vertical-align:top;">:</td><td><div>Web2py Web Framework</div></td></tr><tr><td style="font-weight:bold;vertical-align:top;">keywords</td><td style="vertical-align:top;">:</td><td><div>web2py, python, framework</div></td></tr></table></div></td></tr><tr><td style="font-weight:bold;vertical-align:top;">models_to_run</td><td style="vertical-align:top;">:</td><td><div><table><tr><td><div>^\\w+\\.py$</div></td></tr><tr><td><div>^default/\\w+\\.py$</div></td></tr><tr><td><div>^default/tela_vendedor/\\w+\\.py$</div></td></tr></table></div></td></tr><tr><td style="font-weight:bold;vertical-align:top;">postprocessing</td><td style="vertical-align:top;">:</td><td><div><table></table></div></td></tr><tr><td style="font-weight:bold;vertical-align:top;">session_client</td><td style="vertical-align:top;">:</td><td><div>201.83.52.183</div></td></tr><tr><td style="font-weight:bold;vertical-align:top;">session_cookie_compression_level</td><td style="vertical-align:top;">:</td><td><div>None</div></td></tr><tr><td style="font-weight:bold;vertical-align:top;">session_cookie_expires</td><td style="vertical-align:top;">:</td><td><div>None</div></td></tr><tr><td style="font-weight:bold;vertical-align:top;">session_cookie_key</td><td style="vertical-align:top;">:</td><td><div>None</div></td></tr><tr><td style="font-weight:bold;vertical-align:top;">session_data_name</td><td style="vertical-align:top;">:</td><td><div>session_data_easypay</div></td></tr><tr><td style="font-weight:bold;vertical-align:top;">session_file</td><td style="vertical-align:top;">:</td><td><div>&lt;open file &#x27;/home/www-data/web2py/applications/easypay/sessions/1a6/02c/201.83.52.183-e9d35f97-e24a-4aa0-901a-21ec9a1a456b&#x27;, mode &#x27;rb+&#x27; at 0x7fd8f64154b0&gt;</div></td></tr><tr><td style="font-weight:bold;vertical-align:top;">session_filename</td><td style="vertical-align:top;">:</td><td><div>/home/www-data/web2py/applications/easypay/sessions/201.83.52.183-e9d35f97-e24a-4aa0-901a-21ec9a1a456b</div></td></tr><tr><td style="font-weight:bold;vertical-align:top;">session_hash</td><td style="vertical-align:top;">:</td><td><div>31e26edb97c55bd4731e884e0987c5d2</div></td></tr><tr><td style="font-weight:bold;vertical-align:top;">session_id</td><td style="vertical-align:top;">:</td><td><div>201.83.52.183-e9d35f97-e24a-4aa0-901a-21ec9a1a456b</div></td></tr><tr><td style="font-weight:bold;vertical-align:top;">session_id_name</td><td style="vertical-align:top;">:</td><td><div>session_id_easypay</div></td></tr><tr><td style="font-weight:bold;vertical-align:top;">session_locked</td><td style="vertical-align:top;">:</td><td><div>True</div></td></tr><tr><td style="font-weight:bold;vertical-align:top;">session_masterapp</td><td style="vertical-align:top;">:</td><td><div>easypay</div></td></tr><tr><td style="font-weight:bold;vertical-align:top;">session_new</td><td style="vertical-align:top;">:</td><td><div>False</div></td></tr><tr><td style="font-weight:bold;vertical-align:top;">session_storage_type</td><td style="vertical-align:top;">:</td><td><div>file</div></td></tr><tr><td style="font-weight:bold;vertical-align:top;">status</td><td style="vertical-align:top;">:</td><td><div>200</div></td></tr><tr><td style="font-weight:bold;vertical-align:top;">subtitle</td><td style="vertical-align:top;">:</td><td><div></div></td></tr><tr><td style="font-weight:bold;vertical-align:top;">title</td><td style="vertical-align:top;">:</td><td><div>Easypay</div></td></tr><tr><td style="font-weight:bold;vertical-align:top;">view</td><td style="vertical-align:top;">:</td><td><div>default/tela_vendedor.html</div></td></tr></table></div>'
tRp193
sS'locals'
p194
(dp195
S'total'
p196
S"[u'79.90', u'69.90', u'79.90', u'139.90']"
p197
sS'figura'
p198
S"['produtos.figura.b5dc69dbdb53c837.3438393638365f676466662e706e67.png', 'produtos.figura.bff6e98ddac8e30b.3438393637395f366534343936303130322d5265636f76657265642e706e67.png', 'produtos.figura.8d62aadd75e61f5c.3936343637315f626163363633303865662e6a7067.jpg', 'produtos.figura.ac48bb585b6fb54d.32393634345f436...f4261636b5f746f5f7468655f4675747572652e706e67.png', 'produtos.figura.a4ea5038627da936.3438353832365f3...974616e66616c6c2d61746f726173752d67672e706e67.png', 'produtos.figura.9020d9f0e8cfaf23.3530323737325f636635376263303362662e706e67.png', 'produtos.figura.8637fc6ef2e6232f.3534343831335f6172616e68612d6c6f676f2e706e67.png', 'produtos.figura.a1a301fdbae621c3.3530313933385f63616d69736574615f6e65776572615f303232352e706e67.png', 'produtos.figura.8ebfd052be0096b7.3937313236345f6...4656164706f6f6c5f6d657263656e617279312e6a7067.jpg', 'produtos.figura.8e3d2bf19dfa8051.68656c6c626f792e706e67.png']"
p199
sS'z'
S'<Response [200]>'
p200
sS'doc'
p201
S"{u'_id': u'93cfec93f77c60751e888965f69e491ade97e02e1a08716ce5815357448d24e9', u'canal': u'caixa-1', u'figura': [u'produtos.figura.a1a301fdbae621c3.3530313933385...6d69736574615f6e65776572615f303232352e706e67.png'], u'image_name': u'80942b336a6900f69619f86571f1d7f10f789252a526bc328dbc4a584d0b5c93', u'item': [u'Camiseta Pinguim Marrom New Era'], u'quantidade': u'1', u'status_comprador': u'Pendente', u'status_easypay': u'Pendente', u'status_vendedor': u'Aprovado', u'timestamp': u'2016-05-15 12:44:55', ...}"
p202
sS'produto'
p203
S"['Camiseta Express\\xc3\\xb5es Darth Vader', 'Camiseta Unissex Logo Imp\\xc3\\xa9rio Star Wars', 'Camiseta Star Wars Trooper Helmet', 'Camiseta Vintage Flux Capacitor Back to the Future', 'Camiseta Titanfall Atorasu Vintage Logo', 'Camiseta Better Call Saul! Breaking Bad', 'Camiseta Homem Aranha Logo Marvel', 'Camiseta Pinguim Marrom New Era', 'CAMISETA DEADPOOL MERCENARY', 'CAMISETA HELLBOY LOGO']"
p204
sS'selector'
p205
S'\'{"selector": {"_id": {"$gt": null},"timestamp": ... "valor","_id"], "sort": [{"timestamp": "desc"}]}\''
p206
sS'db'
p207
S'<DAL uri="sqlite://storage.sqlite">'
p208
sS'json'
p209
S"<module 'json' from '/usr/lib/python2.7/json/__init__.pyc'>"
p210
sS'preco'
p211
S"['79,90', '69,90', '79,90', '69,90', '34,90', '79,90', '79,90', '139,90', '79,90', '79,90']"
p212
sS'result'
p213
S"{u'bookmark': u'g1AAAACxeJzLYWBgYMpgTmFQSklKzi9KdUhJMjTSy83Pzy...TKxMTRMZstDMNMBnZpIDkEyqx22ssZWhpZWpGdDYLAC5CTFy', u'docs': [{u'_id': u'3ac5d0b03061af88513472892acd7a6ac1cc03522f05bbaf94d7774d0bfb10b7', u'canal': u'caixa-1', u'figura': [u'produtos.figura.b5dc69dbdb53c837.3438393638365f676466662e706e67.png', u'produtos.figura.bff6e98ddac8e30b.3438393637395...34343936303130322d5265636f76657265642e706e67.png', u'produtos.figura.8d62aadd75e61f5c.3936343637315f626163363633303865662e6a7067.jpg'], u'image_name': u'd2ca18676c9d9bc1bea895df70214a7e64fb7d84412337f18c8d631f015beaa2', u'item': [u'Camiseta Express\\xf5es Darth Vader', u'Camiseta Unissex Logo Imp\\xe9rio Star Wars', u'Camiseta Star Wars Trooper Helmet'], u'quantidade': u'1', u'status_comprador': u'Pendente', u'status_easypay': u'Pendente', u'status_vendedor': u'Aprovado', u'timestamp': u'2016-05-15 13:19:56', ...}, {u'_id': u'93cfec93f77c60751e888965f69e491ade97e02e1a08716ce5815357448d24e9', u'canal': u'caixa-1', u'figura': [u'produtos.figura.a1a301fdbae621c3.3530313933385...6d69736574615f6e65776572615f303232352e706e67.png'], u'image_name': u'80942b336a6900f69619f86571f1d7f10f789252a526bc328dbc4a584d0b5c93', u'item': [u'Camiseta Pinguim Marrom New Era'], u'quantidade': u'1', u'status_comprador': u'Pendente', u'status_easypay': u'Pendente', u'status_vendedor': u'Aprovado', u'timestamp': u'2016-05-15 12:44:55', ...}]}"
p214
sS'docs'
p215
S"[{u'_id': u'3ac5d0b03061af88513472892acd7a6ac1cc03522f05bbaf94d7774d0bfb10b7', u'canal': u'caixa-1', u'figura': [u'produtos.figura.b5dc69dbdb53c837.3438393638365f676466662e706e67.png', u'produtos.figura.bff6e98ddac8e30b.3438393637395...34343936303130322d5265636f76657265642e706e67.png', u'produtos.figura.8d62aadd75e61f5c.3936343637315f626163363633303865662e6a7067.jpg'], u'image_name': u'd2ca18676c9d9bc1bea895df70214a7e64fb7d84412337f18c8d631f015beaa2', u'item': [u'Camiseta Express\\xf5es Darth Vader', u'Camiseta Unissex Logo Imp\\xe9rio Star Wars', u'Camiseta Star Wars Trooper Helmet'], u'quantidade': u'1', u'status_comprador': u'Pendente', u'status_easypay': u'Pendente', u'status_vendedor': u'Aprovado', u'timestamp': u'2016-05-15 13:19:56', ...}, {u'_id': u'93cfec93f77c60751e888965f69e491ade97e02e1a08716ce5815357448d24e9', u'canal': u'caixa-1', u'figura': [u'produtos.figura.a1a301fdbae621c3.3530313933385...6d69736574615f6e65776572615f303232352e706e67.png'], u'image_name': u'80942b336a6900f69619f86571f1d7f10f789252a526bc328dbc4a584d0b5c93', u'item': [u'Camiseta Pinguim Marrom New Era'], u'quantidade': u'1', u'status_comprador': u'Pendente', u'status_easypay': u'Pendente', u'status_vendedor': u'Aprovado', u'timestamp': u'2016-05-15 12:44:55', ...}]"
p216
sS'y'
S"u'139,90'"
p217
sS'x'
S"{u'_id': u'93cfec93f77c60751e888965f69e491ade97e02e1a08716ce5815357448d24e9', u'canal': u'caixa-1', u'figura': [u'produtos.figura.a1a301fdbae621c3.3530313933385...6d69736574615f6e65776572615f303232352e706e67.png'], u'image_name': u'80942b336a6900f69619f86571f1d7f10f789252a526bc328dbc4a584d0b5c93', u'item': [u'Camiseta Pinguim Marrom New Era'], u'quantidade': u'1', u'status_comprador': u'Pendente', u'status_easypay': u'Pendente', u'status_vendedor': u'Aprovado', u'timestamp': u'2016-05-15 12:44:55', ...}"
p218
sS'requests'
p219
S"<module 'requests' from '/usr/local/lib/python2.7/dist-packages/requests/__init__.pyc'>"
p220
sS'_id'
p221
S'[7L, 8L, 9L, 10L, 11L, 12L, 13L, 14L, 15L, 16L]'
p222
sS'os'
p223
S"<module 'os' from '/usr/lib/python2.7/os.pyc'>"
p224
sS'linhas'
p225
S'<Rows (10)>'
p226
sssS'traceback'
p227
S'Traceback (most recent call last):\n  File "/home/www-data/web2py/gluon/restricted.py", line 224, in restricted\n    exec ccode in environment\n  File "/home/www-data/web2py/applications/easypay/controllers/default.py", line 169, in <module>\n  File "/home/www-data/web2py/gluon/globals.py", line 393, in <lambda>\n    self._caller = lambda f: f()\n  File "/home/www-data/web2py/gluon/tools.py", line 3444, in f\n    return action(*a, **b)\n  File "/home/www-data/web2py/applications/easypay/controllers/default.py", line 39, in tela_vendedor\n    return dict(docs=docs, total=sum(map(float,total)).replace(\'.\',\',\'), produto=zip(_id, produto, preco,figura), user=auth.user)\nAttributeError: \'float\' object has no attribute \'replace\'\n'
p228
s.