(dp1
S'output'
p2
S'missing "pass" in view'
p3
sS'layer'
p4
S'ParserContainer'
p5
sS'code'
p6
S'response.write(\'<head>\\n  <meta name="viewport" content="width=device-width, initial-scale=1.0">\\n  <meta name="apple-mobile-web-app-capable" content="yes">\\n  <link rel="stylesheet" href="https://maxcdn.bootstrapcdn.com/bootstrap/3.3.5/css/bootstrap.min.css">\\n  <link rel="apple-touch-icon" href="/easypay/static/images/logo_iphone.png">\\n  <meta name="apple-mobile-web-app-capable" content="yes">\\n</head>\\n<body>\\n<div id="includednavbar"></div>\\n\\n<br><br><br><br><br>\\n<div class="container">\\n<form class="form-horizontal" id="ajaxform">\\n<table class="table table-striped">\\n  <tr>\\n      <td>Item</td><td>\', escape=False)\nfor x in ordem[\'item\']:\n    response.write(\'\\n      \', escape=False)\n    response.write(x)\n    response.write(\'<br>\\n      \', escape=False)\n    pass\nresponse.write(\'</td>\\n\\n      <td>\', escape=False)\nfor x in ordem[\'valor\']:\n    response.write(\'\\n      \', escape=False)\n    response.write(x)\n    response.write(\'\\n      \', escape=False)\n    [ass\n    response.write(\'</td>\\n  </tr>\\n  <tr>\\n    <td>Parcelas</td><td>\', escape=False)\n    response.write(ordem[\'quantidade\'])\n    response.write(\'</td>\\n  <tr>\\n      <td>Hora</td><td>\', escape=False)\n    response.write(ordem[\'timestamp\'])\n    response.write(\'</td>\\n  </tr>\\n  <tr>\\n  <tr>\\n      <td>Imagem</td><td>\\n      \', escape=False)\n    for x in ordem[\'figura\']:\n        response.write(\'\\n      <img style="max-width:500px;max-height:200px;" src="/easypay/default/produtos/download/\', escape=False)\n        response.write(x)\n        response.write(\'">\\n      \', escape=False)\n        pass\n    response.write(\'</td>\\n  </tr>\\n  <tr>\\n      <td ><input id="aprovar" name="aprovar" class="btn btn-primary" type="submit" value="Aprovar" onclick=Aprovar(this);></td>\\n      <td align="right"><input id="enviar" id="rejeitar" name="rejeitar" class="btn btn-primary" type="submit" value="Rejeitar" onclick=Rejeitar(this);></td>\\n  </tr>\\n\\n</table>\\n</form>\\n</div>\\n</div>\\n\\n\\n  <script src="http://www.rcsousa.com.br:8888/js/pushstream.js" type="text/javascript" language="javascript" charset="utf-8"></script>\\n  <script src="https://ajax.googleapis.com/ajax/libs/jquery/1.12.0/jquery.min.js"></script>\\n  <script src="http://maxcdn.bootstrapcdn.com/bootstrap/3.3.5/js/bootstrap.min.js"></script>\\n  <script type="text/javascript" src="/easypay/static/js/links.js"></script>\\n    <script type="text/javascript" language="javascript" charset="utf-8">\\n            $(function(){$("#includednavbar").load("navbar.html");});\\n\\n            function Aprovar(objButton){  \\n            //alert(objButton.name);\\n            //txid = objButton.name;\\n            acao = objButton.value;\\n            }\\n            function Rejeitar(objButton){  \\n            //alert(objButton.name);\\n            //txid = objButton.name;\\n            acao = objButton.value;\\n            }\\n    $("#ajaxform").submit(function(e)\\n    {\\n        var txid = "\', escape=False)\n    response.write(ordem[\'id\'])\n    response.write(\'"\\n        var postData  = {"txid" : txid, "acao": acao };\\n\\n\\n        //confirm(JSON.stringify(postData));\\n        $( "form" )[ 0 ].reset();\\n        $.ajax(\\n            {\\n                // beforeSend: function(xhr) {\\n                //xhr.setRequestHeader(\\\'Access-Control-Allow-Origin\\\', \\\'*\\\');\\n                //}\\n                url : "http://www.rcsousa.com.br:9191/aprovar_despesa_comprador",\\n                type: "POST",\\n                data : JSON.stringify(postData),\\n                success:function(data, textStatus, jqXHR) \\n                    {\\n                        confirm(acao+" Despesa?");\\n                        if (acao == "Aprovar") {\\n                            window.location.assign("/easypay/static/confirma.html")}\\n                        if (acao == "Rejeitar") {\\n                            window.location.assign("/easypay/static/rejeita.html")}\\n                    },\\n                error: function(jqXHR, textStatus, errorThrown) \\n                    {\\n                    }\\n\\n            });\\n\\n\\n        e.preventDefault();\\t//STOP default action\\n    });\\n    </script>\\n</body>\\n</html>\\n\', escape=False)'
p7
sS'snapshot'
p8
(dp9
sS'traceback'
p10
S'None\n'
p11
s.