(dp1
S'output'
p2
S"<class 'requests.exceptions.ConnectionError'> HTTPSConnectionPool(host='rcsousa.cloudant.com', port=443): Max retries exceeded with url: /_session (Caused by NewConnectionError('<requests.packages.urllib3.connection.VerifiedHTTPSConnection object at 0x7f8e01a979d0>: Failed to establish a new connection: [Errno 111] Connection refused',))"
p3
sS'layer'
p4
S'/home/www-data/web2py/applications/easypay/controllers/default.py'
p5
sS'code'
p6
S'#from bottle import request, run, post, tob, route\n#from io import BytesIO\n\n#@route(\'/qrcode\', method=\'POST\')\ndef qrcode():\n    response.flash = T("Welcome to web2py!")\n    return dict(message=T(\'Hello World\'))\n\ndef ordem_de_venda():\n    from cloudant.account import Cloudant\n    cloudantDB = "easypay"\n    client = Cloudant("rcsousa", "F@b1m3u@m0r", account="rcsousa")\n    client.connect()\n    db = client[cloudantDB]\n    docs = []\n    for doc in db:\n        docs.append(doc)\n    client.disconnect()\n    return dict(docs=docs)\n\n@auth.requires_login()\ndef tela_vendedor():\n    from cloudant.account import Cloudant\n    import os\n    db = DAL(\'sqlite://storage.sqlite\',folder=os.getcwd()+\'/applications/easypay/databases\',auto_import=True)\n    #rows = db(db.produtos.id > 0).select()\n    linhas = db(db.produtos.id > 0).select()\n    cloudantDB = "easypay"\n    client = Cloudant("rcsousa", "F@b1m3u@m0r", account="rcsousa")\n    client.connect()\n    db = client[cloudantDB]\n    docs = []\n    produto = []\n    preco = []\n    _id = []\n    figura = []\n    for x in linhas:\n        produto.append(x.produto)\n        preco.append(x.preco)\n        _id.append(x.id)\n        figura.append(x.figura)\n    for doc in db:\n        docs.append(doc)\n    client.disconnect()\n    #return dict(docs=docs, produto=produto, preco=preco)\n    return dict(docs=docs, produto=zip(_id, produto, preco,figura), user=auth.user)\n\n@auth.requires_login()\ndef lista_de_produtos():\n    import os\n    db = DAL(\'sqlite://storage.sqlite\',folder=os.getcwd()+\'/applications/easypay/databases\',auto_import=True)\n    linhas = db(db.produtos.id > 0).select()\n    produto = []\n    preco = []\n    _id = []\n    figura = []\n    descricao = []\n    for x in linhas:\n        produto.append(x.produto)\n        preco.append(x.preco)\n        _id.append(x.id)\n        figura.append(x.figura)\n        descricao.append(x.descricao)\n    return dict(produtos=zip(_id, produto, descricao, preco,figura), user=auth.user)\n\n@auth.requires_login()\ndef tela_easypay():\n    from cloudant.account import Cloudant\n    cloudantDB = "easypay"\n    client = Cloudant("rcsousa", "F@b1m3u@m0r", account="rcsousa")\n    client.connect()\n    db = client[cloudantDB]\n    docs = []\n    for doc in db:\n        docs.append(doc)\n    client.disconnect()\n    return dict(docs=docs, user=auth.user)\n\n@auth.requires_login()\ndef tela_cliente():\n    txid = request.vars.getlist("txid")\n    if not txid:\n        return "Eh preciso informar uma transacao para usar essa funcao"\n    from cloudant.account import Cloudant\n    cloudantDB = "easypay"\n    client = Cloudant("rcsousa", "F@b1m3u@m0r", account="rcsousa")\n    client.connect()\n    db = client[cloudantDB]\n    doc = db[txid[0]]\n    id = doc[\'_id\']\n    item = doc[\'item\']\n    quantidade = doc[\'quantidade\']\n    valor = doc[\'valor\']\n    timestamp = doc[\'timestamp\']\n    figura = doc[\'figura\']\n    result = {"id": id, "item" : item, "quantidade" : quantidade, "valor" : valor, "timestamp" : timestamp, "figura" : figura}\n    return dict(ordem=result, user=auth.user)\n\ndef tela_qrcode():\n    response.flash = T("Welcome to web2py!")\n    return dict(user=auth.user)\n\ndef tela_qrcode_off():\n    txid = request.vars.getlist("txid")\n    return dict(txid=txid[0], user=auth.user)\n\n@auth.requires_login()\ndef produtos():\n    grid=SQLFORM.grid(db.produtos, user_signature=False, formstyle=\'bootstrap3_stacked\')\n    return locals()\n\n@auth.requires_login()\ndef index():\n    response.flash = T("Welcome to web2py!")\n    return dict(user=auth.user)\n\n@auth.requires_login()\ndef navbar():\n    response.flash = T("Welcome to web2py!")\n    return dict(user=auth.user)\n\ndef user():\n    """\n    exposes:\n    http://..../[app]/default/user/login\n    http://..../[app]/default/user/logout\n    http://..../[app]/default/user/register\n    http://..../[app]/default/user/profile\n    http://..../[app]/default/user/retrieve_password\n    http://..../[app]/default/user/change_password\n    http://..../[app]/default/user/manage_users (requires membership in\n    use @auth.requires_login()\n        @auth.requires_membership(\'group name\')\n        @auth.requires_permission(\'read\',\'table name\',record_id)\n    to decorate functions that need access control\n    """\n    return dict(form=auth())\n\nresponse._vars=response._caller(tela_vendedor)\n'
p7
sS'snapshot'
p8
(dp9
S'exception'
p10
(dp11
S'__module__'
p12
S"'requests.exceptions'"
p13
sS'__getslice__'
p14
S"<method-wrapper '__getslice__' of ConnectionError object>"
p15
sS'__str__'
p16
S"<method-wrapper '__str__' of ConnectionError object>"
p17
sS'__reduce__'
p18
S'<built-in method __reduce__ of ConnectionError object>'
p19
sS'__dict__'
p20
S"{'request': <PreparedRequest [POST]>, 'response': None}"
p21
sS'__sizeof__'
p22
S'<built-in method __sizeof__ of ConnectionError object>'
p23
sS'__weakref__'
p24
S'None'
p25
sS'__init__'
p26
S'<bound method ConnectionError.__init__ of Connec...nection: [Errno 111] Connection refused\',))",),)>'
p27
sS'__setattr__'
p28
S"<method-wrapper '__setattr__' of ConnectionError object>"
p29
sS'__reduce_ex__'
p30
S'<built-in method __reduce_ex__ of ConnectionError object>'
p31
sS'__new__'
p32
S'<built-in method __new__ of type object>'
p33
sS'errno'
p34
S'None'
p35
sS'__format__'
p36
S'<built-in method __format__ of ConnectionError object>'
p37
sS'__class__'
p38
S"<class 'requests.exceptions.ConnectionError'>"
p39
sS'filename'
p40
S'None'
p41
sS'__doc__'
p42
S"'A Connection error occurred.'"
p43
sS'__getitem__'
p44
S"<method-wrapper '__getitem__' of ConnectionError object>"
p45
sS'__setstate__'
p46
S'<built-in method __setstate__ of ConnectionError object>'
p47
sS'__getattribute__'
p48
S"<method-wrapper '__getattribute__' of ConnectionError object>"
p49
sS'args'
p50
S'(MaxRetryError("HTTPSConnectionPool(host=\'rcsousa...connection: [Errno 111] Connection refused\',))",),)'
p51
sS'__subclasshook__'
p52
S'<built-in method __subclasshook__ of type object>'
p53
sS'response'
p54
S'None'
p55
sS'__unicode__'
p56
S'<built-in method __unicode__ of ConnectionError object>'
p57
sS'request'
p58
S'<PreparedRequest [POST]>'
p59
sS'strerror'
p60
S'None'
p61
sS'__delattr__'
p62
S"<method-wrapper '__delattr__' of ConnectionError object>"
p63
sS'__repr__'
p64
S"<method-wrapper '__repr__' of ConnectionError object>"
p65
sS'__hash__'
p66
S"<method-wrapper '__hash__' of ConnectionError object>"
p67
ssS'evalue'
p68
S"HTTPSConnectionPool(host='rcsousa.cloudant.com', port=443): Max retries exceeded with url: /_session (Caused by NewConnectionError('<requests.packages.urllib3.connection.VerifiedHTTPSConnection object at 0x7f8e01a979d0>: Failed to establish a new connection: [Errno 111] Connection refused',))"
p69
sg58
cgluon.html
XML_unpickle
p70
(S'smO\x00\x00<div><table><tr><td style="font-weight:bold;vertical-align:top;">ajax</td><td style="vertical-align:top;">:</td><td><div>False</div></td></tr><tr><td style="font-weight:bold;vertical-align:top;">application</td><td style="vertical-align:top;">:</td><td><div>easypay</div></td></tr><tr><td style="font-weight:bold;vertical-align:top;">args</td><td style="vertical-align:top;">:</td><td><div><table></table></div></td></tr><tr><td style="font-weight:bold;vertical-align:top;">cid</td><td style="vertical-align:top;">:</td><td><div>None</div></td></tr><tr><td style="font-weight:bold;vertical-align:top;">client</td><td style="vertical-align:top;">:</td><td><div>201.83.52.183</div></td></tr><tr><td style="font-weight:bold;vertical-align:top;">controller</td><td style="vertical-align:top;">:</td><td><div>default</div></td></tr><tr><td style="font-weight:bold;vertical-align:top;">cookies</td><td style="vertical-align:top;">:</td><td><div><table><tr><td style="font-weight:bold;vertical-align:top;">session_id_easypay</td><td style="vertical-align:top;">:</td><td><div>201.83.52.183-698e8cae-5d42-4b9f-ad62-ea25ce44844e<table><tr><td style="font-weight:bold;vertical-align:top;">comment</td><td style="vertical-align:top;">:</td><td><div></div></td></tr><tr><td style="font-weight:bold;vertical-align:top;">domain</td><td style="vertical-align:top;">:</td><td><div></div></td></tr><tr><td style="font-weight:bold;vertical-align:top;">expires</td><td style="vertical-align:top;">:</td><td><div></div></td></tr><tr><td style="font-weight:bold;vertical-align:top;">httponly</td><td style="vertical-align:top;">:</td><td><div></div></td></tr><tr><td style="font-weight:bold;vertical-align:top;">max-age</td><td style="vertical-align:top;">:</td><td><div></div></td></tr><tr><td style="font-weight:bold;vertical-align:top;">path</td><td style="vertical-align:top;">:</td><td><div></div></td></tr><tr><td style="font-weight:bold;vertical-align:top;">secure</td><td style="vertical-align:top;">:</td><td><div></div></td></tr><tr><td style="font-weight:bold;vertical-align:top;">version</td><td style="vertical-align:top;">:</td><td><div></div></td></tr></table></div></td></tr><tr><td style="font-weight:bold;vertical-align:top;">session_id_welcome</td><td style="vertical-align:top;">:</td><td><div>201.83.52.183-5360f325-ad5b-4d8f-82ef-d8ee4eeb0e1f<table><tr><td style="font-weight:bold;vertical-align:top;">comment</td><td style="vertical-align:top;">:</td><td><div></div></td></tr><tr><td style="font-weight:bold;vertical-align:top;">domain</td><td style="vertical-align:top;">:</td><td><div></div></td></tr><tr><td style="font-weight:bold;vertical-align:top;">expires</td><td style="vertical-align:top;">:</td><td><div></div></td></tr><tr><td style="font-weight:bold;vertical-align:top;">httponly</td><td style="vertical-align:top;">:</td><td><div></div></td></tr><tr><td style="font-weight:bold;vertical-align:top;">max-age</td><td style="vertical-align:top;">:</td><td><div></div></td></tr><tr><td style="font-weight:bold;vertical-align:top;">path</td><td style="vertical-align:top;">:</td><td><div></div></td></tr><tr><td style="font-weight:bold;vertical-align:top;">secure</td><td style="vertical-align:top;">:</td><td><div></div></td></tr><tr><td style="font-weight:bold;vertical-align:top;">version</td><td style="vertical-align:top;">:</td><td><div></div></td></tr></table></div></td></tr></table></div></td></tr><tr><td style="font-weight:bold;vertical-align:top;">env</td><td style="vertical-align:top;">:</td><td><div><table><tr><td style="font-weight:bold;vertical-align:top;">CONTENT_LENGTH</td><td style="vertical-align:top;">:</td><td><div></div></td></tr><tr><td style="font-weight:bold;vertical-align:top;">CONTENT_TYPE</td><td style="vertical-align:top;">:</td><td><div></div></td></tr><tr><td style="font-weight:bold;vertical-align:top;">DOCUMENT_ROOT</td><td style="vertical-align:top;">:</td><td><div>/usr/local/nginx/html</div></td></tr><tr><td style="font-weight:bold;vertical-align:top;">HTTP_ACCEPT</td><td style="vertical-align:top;">:</td><td><div>text/html,application/xhtml+xml,application/xml;q=0.9,*/*;q=0.8</div></td></tr><tr><td style="font-weight:bold;vertical-align:top;">HTTP_ACCEPT_ENCODING</td><td style="vertical-align:top;">:</td><td><div>gzip, deflate</div></td></tr><tr><td style="font-weight:bold;vertical-align:top;">HTTP_ACCEPT_LANGUAGE</td><td style="vertical-align:top;">:</td><td><div>en-us</div></td></tr><tr><td style="font-weight:bold;vertical-align:top;">HTTP_CONNECTION</td><td style="vertical-align:top;">:</td><td><div>keep-alive</div></td></tr><tr><td style="font-weight:bold;vertical-align:top;">HTTP_COOKIE</td><td style="vertical-align:top;">:</td><td><div>session_id_easypay=201.83.52.183-698e8cae-5d42-4b9f-ad62-ea25ce44844e; session_id_welcome=201.83.52.183-5360f325-ad5b-4d8f-82ef-d8ee4eeb0e1f</div></td></tr><tr><td style="font-weight:bold;vertical-align:top;">HTTP_HOST</td><td style="vertical-align:top;">:</td><td><div>easypay.rcsousa.com.br</div></td></tr><tr><td style="font-weight:bold;vertical-align:top;">HTTP_REFERER</td><td style="vertical-align:top;">:</td><td><div>http://easypay.rcsousa.com.br/easypay/default/lista_de_produtos.html</div></td></tr><tr><td style="font-weight:bold;vertical-align:top;">HTTP_USER_AGENT</td><td style="vertical-align:top;">:</td><td><div>Mozilla/5.0 (Macintosh; Intel Mac OS X 10_11_1) AppleWebKit/601.2.7 (KHTML, like Gecko) Version/9.0.1 Safari/601.2.7</div></td></tr><tr><td style="font-weight:bold;vertical-align:top;">PATH_INFO</td><td style="vertical-align:top;">:</td><td><div>/easypay/default/tela_vendedor.html</div></td></tr><tr><td style="font-weight:bold;vertical-align:top;">QUERY_STRING</td><td style="vertical-align:top;">:</td><td><div></div></td></tr><tr><td style="font-weight:bold;vertical-align:top;">REMOTE_ADDR</td><td style="vertical-align:top;">:</td><td><div>201.83.52.183</div></td></tr><tr><td style="font-weight:bold;vertical-align:top;">REMOTE_PORT</td><td style="vertical-align:top;">:</td><td><div>60894</div></td></tr><tr><td style="font-weight:bold;vertical-align:top;">REQUEST_METHOD</td><td style="vertical-align:top;">:</td><td><div>GET</div></td></tr><tr><td style="font-weight:bold;vertical-align:top;">REQUEST_URI</td><td style="vertical-align:top;">:</td><td><div>/easypay/default/tela_vendedor.html</div></td></tr><tr><td style="font-weight:bold;vertical-align:top;">SERVER_NAME</td><td style="vertical-align:top;">:</td><td><div>dev-rcsousa-04</div></td></tr><tr><td style="font-weight:bold;vertical-align:top;">SERVER_PORT</td><td style="vertical-align:top;">:</td><td><div>80</div></td></tr><tr><td style="font-weight:bold;vertical-align:top;">SERVER_PROTOCOL</td><td style="vertical-align:top;">:</td><td><div>HTTP/1.1</div></td></tr><tr><td style="font-weight:bold;vertical-align:top;">SERVER_SOFTWARE</td><td style="vertical-align:top;">:</td><td><div>nginx/1.8.1</div></td></tr><tr><td style="font-weight:bold;vertical-align:top;">UWSGI_SCHEME</td><td style="vertical-align:top;">:</td><td><div>http</div></td></tr><tr><td style="font-weight:bold;vertical-align:top;">app_folders</td><td style="vertical-align:top;">:</td><td><div>set([&#x27;/home/www-data/web2py/applications/welcome/&#x27;, &#x27;/home/www-data/web2py/applications/easypay_novo/&#x27;, &#x27;/home/www-data/web2py/applications/examples/&#x27;, &#x27;/home/www-data/web2py/applications/easypay/&#x27;, &#x27;/home/www-data/web2py/applications/admin/&#x27;])</div></td></tr><tr><td style="font-weight:bold;vertical-align:top;">applications_parent</td><td style="vertical-align:top;">:</td><td><div>/home/www-data/web2py</div></td></tr><tr><td style="font-weight:bold;vertical-align:top;">content_length</td><td style="vertical-align:top;">:</td><td><div></div></td></tr><tr><td style="font-weight:bold;vertical-align:top;">content_type</td><td style="vertical-align:top;">:</td><td><div></div></td></tr><tr><td style="font-weight:bold;vertical-align:top;">db_sessions</td><td style="vertical-align:top;">:</td><td><div>set([])</div></td></tr><tr><td style="font-weight:bold;vertical-align:top;">debugging</td><td style="vertical-align:top;">:</td><td><div>True</div></td></tr><tr><td style="font-weight:bold;vertical-align:top;">document_root</td><td style="vertical-align:top;">:</td><td><div>/usr/local/nginx/html</div></td></tr><tr><td style="font-weight:bold;vertical-align:top;">gluon_parent</td><td style="vertical-align:top;">:</td><td><div>/home/www-data/web2py</div></td></tr><tr><td style="font-weight:bold;vertical-align:top;">http_accept</td><td style="vertical-align:top;">:</td><td><div>text/html,application/xhtml+xml,application/xml;q=0.9,*/*;q=0.8</div></td></tr><tr><td style="font-weight:bold;vertical-align:top;">http_accept_encoding</td><td style="vertical-align:top;">:</td><td><div>gzip, deflate</div></td></tr><tr><td style="font-weight:bold;vertical-align:top;">http_accept_language</td><td style="vertical-align:top;">:</td><td><div>en-us</div></td></tr><tr><td style="font-weight:bold;vertical-align:top;">http_connection</td><td style="vertical-align:top;">:</td><td><div>keep-alive</div></td></tr><tr><td style="font-weight:bold;vertical-align:top;">http_cookie</td><td style="vertical-align:top;">:</td><td><div>session_id_easypay=201.83.52.183-698e8cae-5d42-4b9f-ad62-ea25ce44844e; session_id_welcome=201.83.52.183-5360f325-ad5b-4d8f-82ef-d8ee4eeb0e1f</div></td></tr><tr><td style="font-weight:bold;vertical-align:top;">http_host</td><td style="vertical-align:top;">:</td><td><div>easypay.rcsousa.com.br</div></td></tr><tr><td style="font-weight:bold;vertical-align:top;">http_referer</td><td style="vertical-align:top;">:</td><td><div>http://easypay.rcsousa.com.br/easypay/default/lista_de_produtos.html</div></td></tr><tr><td style="font-weight:bold;vertical-align:top;">http_user_agent</td><td style="vertical-align:top;">:</td><td><div>Mozilla/5.0 (Macintosh; Intel Mac OS X 10_11_1) AppleWebKit/601.2.7 (KHTML, like Gecko) Version/9.0.1 Safari/601.2.7</div></td></tr><tr><td style="font-weight:bold;vertical-align:top;">is_jython</td><td style="vertical-align:top;">:</td><td><div>False</div></td></tr><tr><td style="font-weight:bold;vertical-align:top;">is_pypy</td><td style="vertical-align:top;">:</td><td><div>False</div></td></tr><tr><td style="font-weight:bold;vertical-align:top;">is_source</td><td style="vertical-align:top;">:</td><td><div>True</div></td></tr><tr><td style="font-weight:bold;vertical-align:top;">local_hosts</td><td style="vertical-align:top;">:</td><td><div><table><tr><td><div>::1</div></td></tr><tr><td><div>localhost</div></td></tr><tr><td><div>::ffff:127.0.0.1</div></td></tr><tr><td><div>127.0.0.1</div></td></tr><tr><td><div>dev-rcsousa-04</div></td></tr></table></div></td></tr><tr><td style="font-weight:bold;vertical-align:top;">path_info</td><td style="vertical-align:top;">:</td><td><div>/easypay/default/tela_vendedor.html</div></td></tr><tr><td style="font-weight:bold;vertical-align:top;">query_string</td><td style="vertical-align:top;">:</td><td><div></div></td></tr><tr><td style="font-weight:bold;vertical-align:top;">remote_addr</td><td style="vertical-align:top;">:</td><td><div>201.83.52.183</div></td></tr><tr><td style="font-weight:bold;vertical-align:top;">remote_port</td><td style="vertical-align:top;">:</td><td><div>60894</div></td></tr><tr><td style="font-weight:bold;vertical-align:top;">request_method</td><td style="vertical-align:top;">:</td><td><div>GET</div></td></tr><tr><td style="font-weight:bold;vertical-align:top;">request_uri</td><td style="vertical-align:top;">:</td><td><div>/easypay/default/tela_vendedor.html</div></td></tr><tr><td style="font-weight:bold;vertical-align:top;">server_name</td><td style="vertical-align:top;">:</td><td><div>dev-rcsousa-04</div></td></tr><tr><td style="font-weight:bold;vertical-align:top;">server_port</td><td style="vertical-align:top;">:</td><td><div>80</div></td></tr><tr><td style="font-weight:bold;vertical-align:top;">server_protocol</td><td style="vertical-align:top;">:</td><td><div>HTTP/1.1</div></td></tr><tr><td style="font-weight:bold;vertical-align:top;">server_software</td><td style="vertical-align:top;">:</td><td><div>nginx/1.8.1</div></td></tr><tr><td style="font-weight:bold;vertical-align:top;">uwsgi.node</td><td style="vertical-align:top;">:</td><td><div>dev-rcsousa-04</div></td></tr><tr><td style="font-weight:bold;vertical-align:top;">uwsgi.version</td><td style="vertical-align:top;">:</td><td><div>2.0.10</div></td></tr><tr><td style="font-weight:bold;vertical-align:top;">uwsgi_node</td><td style="vertical-align:top;">:</td><td><div>dev-rcsousa-04</div></td></tr><tr><td style="font-weight:bold;vertical-align:top;">uwsgi_scheme</td><td style="vertical-align:top;">:</td><td><div>http</div></td></tr><tr><td style="font-weight:bold;vertical-align:top;">uwsgi_version</td><td style="vertical-align:top;">:</td><td><div>2.0.10</div></td></tr><tr><td style="font-weight:bold;vertical-align:top;">web2py_path</td><td style="vertical-align:top;">:</td><td><div>/home/www-data/web2py</div></td></tr><tr><td style="font-weight:bold;vertical-align:top;">web2py_version</td><td style="vertical-align:top;">:</td><td><div>2.9.12-stable+timestamp.2015.01.17.06.11.03</div></td></tr><tr><td style="font-weight:bold;vertical-align:top;">wsgi.errors</td><td style="vertical-align:top;">:</td><td><div>&lt;open file &#x27;wsgi_errors&#x27;, mode &#x27;w&#x27; at 0x7f8e05277ae0&gt;</div></td></tr><tr><td style="font-weight:bold;vertical-align:top;">wsgi.file_wrapper</td><td style="vertical-align:top;">:</td><td><div>&lt;built-in function uwsgi_sendfile&gt;</div></td></tr><tr><td style="font-weight:bold;vertical-align:top;">wsgi.input</td><td style="vertical-align:top;">:</td><td><div>&lt;uwsgi._Input object at 0x7f8e0d1abed0&gt;</div></td></tr><tr><td style="font-weight:bold;vertical-align:top;">wsgi.multiprocess</td><td style="vertical-align:top;">:</td><td><div>True</div></td></tr><tr><td style="font-weight:bold;vertical-align:top;">wsgi.multithread</td><td style="vertical-align:top;">:</td><td><div>False</div></td></tr><tr><td style="font-weight:bold;vertical-align:top;">wsgi.run_once</td><td style="vertical-align:top;">:</td><td><div>False</div></td></tr><tr><td style="font-weight:bold;vertical-align:top;">wsgi.url_scheme</td><td style="vertical-align:top;">:</td><td><div>http</div></td></tr><tr><td style="font-weight:bold;vertical-align:top;">wsgi.version</td><td style="vertical-align:top;">:</td><td><div><table><tr><td><div>1</div></td></tr><tr><td><div>0</div></td></tr></table></div></td></tr><tr><td style="font-weight:bold;vertical-align:top;">wsgi_errors</td><td style="vertical-align:top;">:</td><td><div>&lt;open file &#x27;wsgi_errors&#x27;, mode &#x27;w&#x27; at 0x7f8e05277ae0&gt;</div></td></tr><tr><td style="font-weight:bold;vertical-align:top;">wsgi_file_wrapper</td><td style="vertical-align:top;">:</td><td><div>&lt;built-in function uwsgi_sendfile&gt;</div></td></tr><tr><td style="font-weight:bold;vertical-align:top;">wsgi_input</td><td style="vertical-align:top;">:</td><td><div>&lt;uwsgi._Input object at 0x7f8e0d1abed0&gt;</div></td></tr><tr><td style="font-weight:bold;vertical-align:top;">wsgi_multiprocess</td><td style="vertical-align:top;">:</td><td><div>True</div></td></tr><tr><td style="font-weight:bold;vertical-align:top;">wsgi_multithread</td><td style="vertical-align:top;">:</td><td><div>False</div></td></tr><tr><td style="font-weight:bold;vertical-align:top;">wsgi_run_once</td><td style="vertical-align:top;">:</td><td><div>False</div></td></tr><tr><td style="font-weight:bold;vertical-align:top;">wsgi_url_scheme</td><td style="vertical-align:top;">:</td><td><div>http</div></td></tr><tr><td style="font-weight:bold;vertical-align:top;">wsgi_version</td><td style="vertical-align:top;">:</td><td><div><table><tr><td><div>1</div></td></tr><tr><td><div>0</div></td></tr></table></div></td></tr></table></div></td></tr><tr><td style="font-weight:bold;vertical-align:top;">extension</td><td style="vertical-align:top;">:</td><td><div>html</div></td></tr><tr><td style="font-weight:bold;vertical-align:top;">folder</td><td style="vertical-align:top;">:</td><td><div>/home/www-data/web2py/applications/easypay/</div></td></tr><tr><td style="font-weight:bold;vertical-align:top;">function</td><td style="vertical-align:top;">:</td><td><div>tela_vendedor</div></td></tr><tr><td style="font-weight:bold;vertical-align:top;">global_settings</td><td style="vertical-align:top;">:</td><td><div><table><tr><td style="font-weight:bold;vertical-align:top;">app_folders</td><td style="vertical-align:top;">:</td><td><div>set([&#x27;/home/www-data/web2py/applications/welcome/&#x27;, &#x27;/home/www-data/web2py/applications/easypay_novo/&#x27;, &#x27;/home/www-data/web2py/applications/examples/&#x27;, &#x27;/home/www-data/web2py/applications/easypay/&#x27;, &#x27;/home/www-data/web2py/applications/admin/&#x27;])</div></td></tr><tr><td style="font-weight:bold;vertical-align:top;">applications_parent</td><td style="vertical-align:top;">:</td><td><div>/home/www-data/web2py</div></td></tr><tr><td style="font-weight:bold;vertical-align:top;">db_sessions</td><td style="vertical-align:top;">:</td><td><div>set([])</div></td></tr><tr><td style="font-weight:bold;vertical-align:top;">debugging</td><td style="vertical-align:top;">:</td><td><div>True</div></td></tr><tr><td style="font-weight:bold;vertical-align:top;">gluon_parent</td><td style="vertical-align:top;">:</td><td><div>/home/www-data/web2py</div></td></tr><tr><td style="font-weight:bold;vertical-align:top;">is_jython</td><td style="vertical-align:top;">:</td><td><div>False</div></td></tr><tr><td style="font-weight:bold;vertical-align:top;">is_pypy</td><td style="vertical-align:top;">:</td><td><div>False</div></td></tr><tr><td style="font-weight:bold;vertical-align:top;">is_source</td><td style="vertical-align:top;">:</td><td><div>True</div></td></tr><tr><td style="font-weight:bold;vertical-align:top;">local_hosts</td><td style="vertical-align:top;">:</td><td><div><table><tr><td><div>::1</div></td></tr><tr><td><div>localhost</div></td></tr><tr><td><div>::ffff:127.0.0.1</div></td></tr><tr><td><div>127.0.0.1</div></td></tr><tr><td><div>dev-rcsousa-04</div></td></tr></table></div></td></tr><tr><td style="font-weight:bold;vertical-align:top;">web2py_version</td><td style="vertical-align:top;">:</td><td><div>2.9.12-stable+timestamp.2015.01.17.06.11.03</div></td></tr></table></div></td></tr><tr><td style="font-weight:bold;vertical-align:top;">is_https</td><td style="vertical-align:top;">:</td><td><div>False</div></td></tr><tr><td style="font-weight:bold;vertical-align:top;">is_local</td><td style="vertical-align:top;">:</td><td><div>False</div></td></tr><tr><td style="font-weight:bold;vertical-align:top;">is_restful</td><td style="vertical-align:top;">:</td><td><div>False</div></td></tr><tr><td style="font-weight:bold;vertical-align:top;">is_sheduler</td><td style="vertical-align:top;">:</td><td><div>None</div></td></tr><tr><td style="font-weight:bold;vertical-align:top;">is_shell</td><td style="vertical-align:top;">:</td><td><div>None</div></td></tr><tr><td style="font-weight:bold;vertical-align:top;">now</td><td style="vertical-align:top;">:</td><td><div>datetime.datetime(2016, 4, 18, 5, 51, 40, 757608)</div></td></tr><tr><td style="font-weight:bold;vertical-align:top;">raw_args</td><td style="vertical-align:top;">:</td><td><div></div></td></tr><tr><td style="font-weight:bold;vertical-align:top;">raw_extension</td><td style="vertical-align:top;">:</td><td><div>html</div></td></tr><tr><td style="font-weight:bold;vertical-align:top;">url</td><td style="vertical-align:top;">:</td><td><div>/easypay/default/tela_vendedor.html</div></td></tr><tr><td style="font-weight:bold;vertical-align:top;">utcnow</td><td style="vertical-align:top;">:</td><td><div>datetime.datetime(2016, 4, 18, 9, 51, 40, 757658)</div></td></tr><tr><td style="font-weight:bold;vertical-align:top;">uuid</td><td style="vertical-align:top;">:</td><td><div>easypay/201.83.52.183.2016-04-18.05-51-40.265814db-6f39-4072-94c1-3190a767fe71</div></td></tr><tr><td style="font-weight:bold;vertical-align:top;">wsgi</td><td style="vertical-align:top;">:</td><td><div>&lt;gluon.main.LazyWSGI object at 0x7f8e019bcdd0&gt;</div></td></tr></table></div>'
tRp71
sS'frames'
p72
(lp73
(dp74
S'file'
p75
S'/home/www-data/web2py/gluon/restricted.py'
p76
sS'dump'
p77
(dp78
S'environment'
p79
S"{'A': <class 'gluon.html.A'>, 'ANY_OF': <class 'gluon.validators.ANY_OF'>, 'ASSIGNJS': <function ASSIGNJS>, 'Auth': <class 'gluon.tools.Auth'>, 'B': <class 'gluon.html.B'>, 'BEAUTIFY': <class 'gluon.html.BEAUTIFY'>, 'BODY': <class 'gluon.html.BODY'>, 'BR': <class 'gluon.html.BR'>, 'BUTTON': <class 'gluon.html.BUTTON'>, 'CAT': <class 'gluon.html.CAT'>, ...}"
p80
sS'ccode'
p81
S'<code object <module> at 0x7f8e0248b830, file "/...ications/easypay/controllers/default.py", line 5>'
p82
ssS'lnum'
p83
I224
sS'lines'
p84
(dp85
I224
S'        exec ccode in environment'
p86
sI225
S'    except HTTP:'
p87
sI226
S'        raise'
p88
sI227
S'    except RestrictedError:'
p89
sI228
S'        # do not encapsulate (obfuscate) the original RestrictedError'
p90
sI219
S'    try:'
p91
sI220
S'        if isinstance(code, types.CodeType):'
p92
sI221
S'            ccode = code'
p93
sI222
S'        else:'
p94
sI223
S'            ccode = compile2(code, layer)'
p95
ssS'call'
p96
S"(code='#from bottle import request, run, post, tob, rou...\\n\\nresponse._vars=response._caller(tela_vendedor)\\n', environment={'A': <class 'gluon.html.A'>, 'ANY_OF': <class 'gluon.validators.ANY_OF'>, 'ASSIGNJS': <function ASSIGNJS>, 'Auth': <class 'gluon.tools.Auth'>, 'B': <class 'gluon.html.B'>, 'BEAUTIFY': <class 'gluon.html.BEAUTIFY'>, 'BODY': <class 'gluon.html.BODY'>, 'BR': <class 'gluon.html.BR'>, 'BUTTON': <class 'gluon.html.BUTTON'>, 'CAT': <class 'gluon.html.CAT'>, ...}, layer='/home/www-data/web2py/applications/easypay/controllers/default.py')"
p97
sS'func'
p98
S'restricted'
p99
sa(dp100
g75
S'/home/www-data/web2py/applications/easypay/controllers/default.py'
p101
sg77
(dp102
sg83
I139
sg84
(dp103
I128
S'    http://..../[app]/default/user/profile'
p104
sI129
S'    http://..../[app]/default/user/retrieve_password'
p105
sI130
S'    http://..../[app]/default/user/change_password'
p106
sI131
S'    http://..../[app]/default/user/manage_users (requires membership in'
p107
sI132
S'    use @auth.requires_login()'
p108
sI133
S"        @auth.requires_membership('group name')"
p109
sI134
S"        @auth.requires_permission('read','table name',record_id)"
p110
sI135
S'    to decorate functions that need access control'
p111
sI136
S'    """'
p112
sI137
S'    return dict(form=auth())'
p113
ssg96
S'()'
p114
sg98
S'<module>'
p115
sa(dp116
g75
S'/home/www-data/web2py/gluon/globals.py'
p117
sg77
(dp118
S'self'
p119
S'undefined'
p120
sS'f'
S'<function tela_vendedor>'
p121
ssg83
I393
sg84
(dp122
I388
S"        self.flash = ''            # used by the default view layout"
p123
sI389
S'        self.meta = Storage()      # used by web2py_ajax.html'
p124
sI390
S'        self.menu = []             # used by the default view layout'
p125
sI391
S'        self.files = []            # used by web2py_ajax.html'
p126
sI392
S'        self._vars = None'
p127
sI393
S'        self._caller = lambda f: f()'
p128
sI394
S'        self._view_environment = None'
p129
sI395
S'        self._custom_commit = None'
p130
sI396
S'        self._custom_rollback = None'
p131
sI397
S"        self.generic_patterns = ['*']"
p132
ssg96
S'(f=<function tela_vendedor>)'
p133
sg98
S'<lambda>'
p134
sa(dp135
g75
S'/home/www-data/web2py/gluon/tools.py'
p136
sg77
(dp137
S'action'
p138
S'<function tela_vendedor>'
p139
sS'a'
S'()'
p140
sS'b'
S'{}'
p141
ssg83
I3444
sg84
(dp142
I3439
S'                    flag = condition'
p143
sI3440
S'                if not flag:'
p144
sI3441
S'                    current.session.flash = self.messages.access_denied'
p145
sI3442
S'                    return call_or_redirect('
p146
sI3443
S'                        self.settings.on_failed_authorization)'
p147
sI3444
S'                return action(*a, **b)'
p148
sI3445
S'            f.__doc__ = action.__doc__'
p149
sI3446
S'            f.__name__ = action.__name__'
p150
sI3447
S'            f.__dict__.update(action.__dict__)'
p151
sI3448
S'            return f'
p152
ssg96
S'(*a=(), **b={})'
p153
sg98
S'f'
sa(dp154
g75
S'/home/www-data/web2py/applications/easypay/controllers/default.py'
p155
sg77
(dp156
S'client'
p157
S'{}'
p158
sS'client.connect'
p159
S'<bound method Cloudant.connect of {}>'
p160
ssg83
I30
sg84
(dp161
I32
S'    docs = []'
p162
sI33
S'    produto = []'
p163
sI34
S'    preco = []'
p164
sI25
S"    db = DAL('sqlite://storage.sqlite',folder=os.getcwd()+'/applications/easypay/databases',auto_import=True)"
p165
sI26
S'    #rows = db(db.produtos.id > 0).select()'
p166
sI27
S'    linhas = db(db.produtos.id > 0).select()'
p167
sI28
S'    cloudantDB = "easypay"'
p168
sI29
S'    client = Cloudant("rcsousa", "F@b1m3u@m0r", account="rcsousa")'
p169
sI30
S'    client.connect()'
p170
sI31
S'    db = client[cloudantDB]'
p171
ssg96
S'()'
p172
sg98
S'tela_vendedor'
p173
sa(dp174
g75
S'/usr/local/lib/python2.7/dist-packages/cloudant/account.py'
p175
sg77
(dp176
S'self'
p177
S'{}'
p178
sS'self.session_login'
p179
S'<bound method Cloudant.session_login of {}>'
p180
sS'self._cloudant_user'
p181
S"'rcsousa'"
p182
sS'self._cloudant_token'
p183
S"'F@b1m3u@m0r'"
p184
ssg83
I73
sg84
(dp185
I68
S'        """'
p186
sI69
S'        self.r_session = requests.Session()'
p187
sI70
S'        self.r_session.auth = (self._cloudant_user, self._cloudant_token)'
p188
sI71
S'        if self._cloudant_user_header is not None:'
p189
sI72
S'            self.r_session.headers.update(self._cloudant_user_header)'
p190
sI73
S'        self.session_login(self._cloudant_user, self._cloudant_token)'
p191
sI74
S'        self._cloudant_session = self.session()'
p192
sI75
S''
sI76
S'    def disconnect(self):'
p193
sI77
S'        """'
p194
ssg96
S'(self={})'
p195
sg98
S'connect'
p196
sa(dp197
g75
S'/usr/local/lib/python2.7/dist-packages/cloudant/account.py'
p198
sg77
(dp199
S'headers'
p200
g120
ssg83
I120
sg84
(dp201
I115
S'            sess_url,'
p202
sI116
S'            data={'
p203
sI117
S"                'name': user,"
p204
sI118
S"                'password': passwd"
p205
sI119
S'            },'
p206
sI120
S"            headers={'Content-Type': 'application/x-www-form-urlencoded'}"
p207
sI121
S'        )'
p208
sI122
S'        resp.raise_for_status()'
p209
sI123
S''
sI124
S'    def session_logout(self):'
p210
ssg96
S"(self={}, user='rcsousa', passwd='F@b1m3u@m0r')"
p211
sg98
S'session_login'
p212
sa(dp213
g75
S'/usr/local/lib/python2.7/dist-packages/requests/sessions.py'
p214
sg77
(dp215
S'url'
p216
S"'https://rcsousa.cloudant.com/_session'"
p217
sS'self'
p218
S'<requests.sessions.Session object>'
p219
sS'self.request'
p220
S'<bound method Session.request of <requests.sessions.Session object>>'
p221
sS'json'
p222
S'None'
p223
sS'kwargs'
p224
S"{'headers': {'Content-Type': 'application/x-www-form-urlencoded'}}"
p225
sS'data'
p226
S"{'name': 'rcsousa', 'password': 'F@b1m3u@m0r'}"
p227
ssg83
I511
sg84
(dp228
I512
S''
sI513
S'    def put(self, url, data=None, **kwargs):'
p229
sI514
S'        """Sends a PUT request. Returns :class:`Response` object.'
p230
sI515
S''
sI506
S'        :param data: (optional) Dictionary, bytes, or file-like object to send in the body of the :class:`Request`.'
p231
sI507
S'        :param json: (optional) json to send in the body of the :class:`Request`.'
p232
sI508
S'        :param \\*\\*kwargs: Optional arguments that ``request`` takes.'
p233
sI509
S'        """'
p234
sI510
S''
sI511
S"        return self.request('POST', url, data=data, json=json, **kwargs)"
p235
ssg96
S"(self=<requests.sessions.Session object>, url='https://rcsousa.cloudant.com/_session', data={'name': 'rcsousa', 'password': 'F@b1m3u@m0r'}, json=None, **kwargs={'headers': {'Content-Type': 'application/x-www-form-urlencoded'}})"
p236
sg98
S'post'
p237
sa(dp238
g75
S'/usr/local/lib/python2.7/dist-packages/requests/sessions.py'
p239
sg77
(dp240
S'resp'
p241
g120
sS'send_kwargs'
p242
S"{'allow_redirects': True, 'cert': None, 'proxies': OrderedDict(), 'stream': False, 'timeout': None, 'verify': True}"
p243
sS'prep'
p244
S'<PreparedRequest [POST]>'
p245
sS'self'
p246
S'<requests.sessions.Session object>'
p247
sS'self.send'
p248
S'<bound method Session.send of <requests.sessions.Session object>>'
p249
ssg83
I468
sg84
(dp250
I463
S'        send_kwargs = {'
p251
sI464
S"            'timeout': timeout,"
p252
sI465
S"            'allow_redirects': allow_redirects,"
p253
sI466
S'        }'
p254
sI467
S'        send_kwargs.update(settings)'
p255
sI468
S'        resp = self.send(prep, **send_kwargs)'
p256
sI469
S''
sI470
S'        return resp'
p257
sI471
S''
sI472
S'    def get(self, url, **kwargs):'
p258
ssg96
S"(self=<requests.sessions.Session object>, method='POST', url='https://rcsousa.cloudant.com/_session', params=None, data={'name': 'rcsousa', 'password': 'F@b1m3u@m0r'}, headers={'Content-Type': 'application/x-www-form-urlencoded'}, cookies=None, files=None, auth=None, timeout=None, allow_redirects=True, proxies={}, hooks=None, stream=None, verify=None, cert=None, json=None)"
p259
sg98
g58
sa(dp260
g75
S'/usr/local/lib/python2.7/dist-packages/requests/sessions.py'
p261
sg77
(dp262
S'request'
p263
S'<PreparedRequest [POST]>'
p264
sS'adapter'
p265
S'<requests.adapters.HTTPAdapter object>'
p266
sS'r'
g120
sS'adapter.send'
p267
S'<bound method HTTPAdapter.send of <requests.adapters.HTTPAdapter object>>'
p268
sS'kwargs'
p269
S"{'cert': None, 'proxies': OrderedDict(), 'stream': False, 'timeout': None, 'verify': True}"
p270
ssg83
I576
sg84
(dp271
I576
S'        r = adapter.send(request, **kwargs)'
p272
sI577
S''
sI578
S'        # Total elapsed time of the request (approximately)'
p273
sI579
S'        r.elapsed = datetime.utcnow() - start'
p274
sI580
S''
sI571
S''
sI572
S'        # Start time (approximately) of the request'
p275
sI573
S'        start = datetime.utcnow()'
p276
sI574
S''
sI575
S'        # Send the request'
p277
ssg96
S"(self=<requests.sessions.Session object>, request=<PreparedRequest [POST]>, **kwargs={'cert': None, 'proxies': OrderedDict(), 'stream': False, 'timeout': None, 'verify': True})"
p278
sg98
S'send'
p279
sa(dp280
g75
S'/usr/local/lib/python2.7/dist-packages/requests/adapters.py'
p281
sg77
(dp282
S'global ConnectionError'
p283
S"<class 'requests.exceptions.ConnectionError'>"
p284
sS'e'
S'MaxRetryError("HTTPSConnectionPool(host=\'rcsousa...connection: [Errno 111] Connection refused\',))",)'
p285
sS'request'
p286
S'<PreparedRequest [POST]>'
p287
ssg83
I437
sg84
(dp288
I432
S'                    raise ConnectTimeout(e, request=request)'
p289
sI433
S''
sI434
S'            if isinstance(e.reason, ResponseError):'
p290
sI435
S'                raise RetryError(e, request=request)'
p291
sI436
S''
sI437
S'            raise ConnectionError(e, request=request)'
p292
sI438
S''
sI439
S'        except ClosedPoolError as e:'
p293
sI440
S'            raise ConnectionError(e, request=request)'
p294
sI441
S''
ssg96
S'(self=<requests.adapters.HTTPAdapter object>, request=<PreparedRequest [POST]>, stream=False, timeout=<requests.packages.urllib3.util.timeout.Timeout object>, verify=True, cert=None, proxies=OrderedDict())'
p295
sg98
g279
sasS'pyver'
p296
S'Python 2.7.6: /usr/local/bin/uwsgi (prefix: /usr)'
p297
sS'session'
p298
g70
(S'sz\t\x00\x00<div><table><tr><td style="font-weight:bold;vertical-align:top;">auth</td><td style="vertical-align:top;">:</td><td><div><table><tr><td style="font-weight:bold;vertical-align:top;">expiration</td><td style="vertical-align:top;">:</td><td><div>3600</div></td></tr><tr><td style="font-weight:bold;vertical-align:top;">hmac_key</td><td style="vertical-align:top;">:</td><td><div>74ba7c15-2602-4477-9ac5-fd3e53731d76</div></td></tr><tr><td style="font-weight:bold;vertical-align:top;">last_visit</td><td style="vertical-align:top;">:</td><td><div>datetime.datetime(2016, 4, 18, 5, 51, 31, 163973)</div></td></tr><tr><td style="font-weight:bold;vertical-align:top;">remember_me</td><td style="vertical-align:top;">:</td><td><div>False</div></td></tr><tr><td style="font-weight:bold;vertical-align:top;">user</td><td style="vertical-align:top;">:</td><td><div><table><tr><td style="font-weight:bold;vertical-align:top;">email</td><td style="vertical-align:top;">:</td><td><div>ricardo.c.sousa@gmail.com</div></td></tr><tr><td style="font-weight:bold;vertical-align:top;">first_name</td><td style="vertical-align:top;">:</td><td><div>Ricardo</div></td></tr><tr><td style="font-weight:bold;vertical-align:top;">id</td><td style="vertical-align:top;">:</td><td><div>1L</div></td></tr><tr><td style="font-weight:bold;vertical-align:top;">last_name</td><td style="vertical-align:top;">:</td><td><div>Coelho</div></td></tr><tr><td style="font-weight:bold;vertical-align:top;">registration_id</td><td style="vertical-align:top;">:</td><td><div></div></td></tr><tr><td style="font-weight:bold;vertical-align:top;">registration_key</td><td style="vertical-align:top;">:</td><td><div></div></td></tr><tr><td style="font-weight:bold;vertical-align:top;">reset_password_key</td><td style="vertical-align:top;">:</td><td><div></div></td></tr><tr><td style="font-weight:bold;vertical-align:top;">username</td><td style="vertical-align:top;">:</td><td><div>rcsousa</div></td></tr></table></div></td></tr><tr><td style="font-weight:bold;vertical-align:top;">user_groups</td><td style="vertical-align:top;">:</td><td><div><table><tr><td style="font-weight:bold;vertical-align:top;">1</td><td style="vertical-align:top;">:</td><td><div>user_1</div></td></tr></table></div></td></tr></table></div></td></tr><tr><td style="font-weight:bold;vertical-align:top;">flash</td><td style="vertical-align:top;">:</td><td><div>None</div></td></tr></table></div>'
tRp299
sS'etype'
p300
S"<class 'requests.exceptions.ConnectionError'>"
p301
sS'date'
p302
S'Mon Apr 18 05:51:40 2016'
p303
sg54
g70
(S's\xa12\x00\x00<div><table><tr><td style="font-weight:bold;vertical-align:top;">body</td><td style="vertical-align:top;">:</td><td><div>&lt;cStringIO.StringO object at 0x7f8e0262e0d8&gt;</div></td></tr><tr><td style="font-weight:bold;vertical-align:top;">cookies</td><td style="vertical-align:top;">:</td><td><div><table><tr><td style="font-weight:bold;vertical-align:top;">session_id_easypay</td><td style="vertical-align:top;">:</td><td><div>201.83.52.183-698e8cae-5d42-4b9f-ad62-ea25ce44844e<table><tr><td style="font-weight:bold;vertical-align:top;">comment</td><td style="vertical-align:top;">:</td><td><div></div></td></tr><tr><td style="font-weight:bold;vertical-align:top;">domain</td><td style="vertical-align:top;">:</td><td><div></div></td></tr><tr><td style="font-weight:bold;vertical-align:top;">expires</td><td style="vertical-align:top;">:</td><td><div></div></td></tr><tr><td style="font-weight:bold;vertical-align:top;">httponly</td><td style="vertical-align:top;">:</td><td><div></div></td></tr><tr><td style="font-weight:bold;vertical-align:top;">max-age</td><td style="vertical-align:top;">:</td><td><div></div></td></tr><tr><td style="font-weight:bold;vertical-align:top;">path</td><td style="vertical-align:top;">:</td><td><div>/</div></td></tr><tr><td style="font-weight:bold;vertical-align:top;">secure</td><td style="vertical-align:top;">:</td><td><div></div></td></tr><tr><td style="font-weight:bold;vertical-align:top;">version</td><td style="vertical-align:top;">:</td><td><div></div></td></tr></table></div></td></tr></table></div></td></tr><tr><td style="font-weight:bold;vertical-align:top;">delimiters</td><td style="vertical-align:top;">:</td><td><div><table><tr><td><div>{{</div></td></tr><tr><td><div>}}</div></td></tr></table></div></td></tr><tr><td style="font-weight:bold;vertical-align:top;">files</td><td style="vertical-align:top;">:</td><td><div><table></table></div></td></tr><tr><td style="font-weight:bold;vertical-align:top;">flash</td><td style="vertical-align:top;">:</td><td><div></div></td></tr><tr><td style="font-weight:bold;vertical-align:top;">form_label_separator</td><td style="vertical-align:top;">:</td><td><div>: </div></td></tr><tr><td style="font-weight:bold;vertical-align:top;">formstyle</td><td style="vertical-align:top;">:</td><td><div>table3cols</div></td></tr><tr><td style="font-weight:bold;vertical-align:top;">generic_patterns</td><td style="vertical-align:top;">:</td><td><div><table></table></div></td></tr><tr><td style="font-weight:bold;vertical-align:top;">google_analytics_id</td><td style="vertical-align:top;">:</td><td><div>None</div></td></tr><tr><td style="font-weight:bold;vertical-align:top;">headers</td><td style="vertical-align:top;">:</td><td><div><table><tr><td style="font-weight:bold;vertical-align:top;">X-Powered-By</td><td style="vertical-align:top;">:</td><td><div>web2py</div></td></tr></table></div></td></tr><tr><td style="font-weight:bold;vertical-align:top;">logo</td><td style="vertical-align:top;">:</td><td><div><a class="brand" href="http://www.web2py.com/"><b>web<span>2</span>py</b>&trade;&nbsp;</a></div></td></tr><tr><td style="font-weight:bold;vertical-align:top;">menu</td><td style="vertical-align:top;">:</td><td><div><table><tr><td><div><table><tr><td><div>Home</div></td></tr><tr><td><div>False</div></td></tr><tr><td><div>/easypay/default/index</div></td></tr><tr><td><div><table></table></div></td></tr></table></div></td></tr><tr><td><div><table><tr><td><div><span class="highlighted">web2py</span></div></td></tr><tr><td><div>False</div></td></tr><tr><td><div>http://web2py.com</div></td></tr><tr><td><div><table><tr><td><div><table><tr><td><div>My Sites</div></td></tr><tr><td><div>False</div></td></tr><tr><td><div>/admin/default/site</div></td></tr></table></div></td></tr><tr><td><div><table><tr><td><div>This App</div></td></tr><tr><td><div>False</div></td></tr><tr><td><div>/admin/default/design/easypay</div></td></tr><tr><td><div>[(&lt;lazyT &#x27;Controller&#x27;&gt;, False, &#x27;/admin/default/edit/easypay/controllers/default.py&#x27;), (&lt;lazyT &#x27;View&#x27;&gt;, False, &#x27;/admin/default/edit/easypay/views/default/tela_vendedor.html&#x27;), (&lt;lazyT &#x27;Layout&#x27;&gt;, False, &#x27;/admin/default/edit/easypay/views/layout.html&#x27;), (&lt;lazyT &#x27;Stylesheet&#x27;&gt;, False, &#x27;/admin/default/edit/easypay/static/css/web2py.css&#x27;), (&lt;lazyT &#x27;DB Model&#x27;&gt;, False, &#x27;/admin/default/edit/easypay/models/db.py&#x27;), (&lt;lazyT &#x27;Menu Model&#x27;&gt;, False, &#x27;/admin/default/edit/easypay/models/menu.py&#x27;), (&lt;lazyT &#x27;Database&#x27;&gt;, False, &#x27;/easypay/appadmin/index&#x27;), (&lt;lazyT &#x27;Errors&#x27;&gt;, False, &#x27;/admin/default/errors/easypay&#x27;), (&lt;lazyT &#x27;About&#x27;&gt;, False, &#x27;/admin/default/about/easypay&#x27;)]</div></td></tr></table></div></td></tr><tr><td><div><table><tr><td><div>web2py.com</div></td></tr><tr><td><div>False</div></td></tr><tr><td><div>http://www.web2py.com</div></td></tr><tr><td><div>[(&lt;lazyT &#x27;Download&#x27;&gt;, False, &#x27;http://www.web2py.com/examples/default/download&#x27;), (&lt;lazyT &#x27;Support&#x27;&gt;, False, &#x27;http://www.web2py.com/examples/default/support&#x27;), (&lt;lazyT &#x27;Demo&#x27;&gt;, False, &#x27;http://web2py.com/demo_admin&#x27;), (&lt;lazyT &#x27;Quick Examples&#x27;&gt;, False, &#x27;http://web2py.com/examples/default/examples&#x27;), (&lt;lazyT &#x27;FAQ&#x27;&gt;, False, &#x27;http://web2py.com/AlterEgo&#x27;), (&lt;lazyT &#x27;Videos&#x27;&gt;, False, &#x27;http://www.web2py.com/examples/default/videos/&#x27;), (&lt;lazyT &#x27;Free Applications&#x27;&gt;, False, &#x27;http://web2py.com/appliances&#x27;), (&lt;lazyT &#x27;Plugins&#x27;&gt;, False, &#x27;http://web2py.com/plugins&#x27;), (&lt;lazyT &#x27;Layouts&#x27;&gt;, False, &#x27;http://web2py.com/layouts&#x27;), (&lt;lazyT &#x27;Recipes&#x27;&gt;, False, &#x27;http://web2pyslices.com/&#x27;), (&lt;lazyT &#x27;Semantic&#x27;&gt;, False, &#x27;http://web2py.com/semantic&#x27;)]</div></td></tr></table></div></td></tr><tr><td><div><table><tr><td><div>Documentation</div></td></tr><tr><td><div>False</div></td></tr><tr><td><div>http://www.web2py.com/book</div></td></tr><tr><td><div>[(&lt;lazyT &#x27;Preface&#x27;&gt;, False, &#x27;http://www.web2py.com/book/default/chapter/00&#x27;), (&lt;lazyT &#x27;Introduction&#x27;&gt;, False, &#x27;http://www.web2py.com/book/default/chapter/01&#x27;), (&lt;lazyT &#x27;Python&#x27;&gt;, False, &#x27;http://www.web2py.com/book/default/chapter/02&#x27;), (&lt;lazyT &#x27;Overview&#x27;&gt;, False, &#x27;http://www.web2py.com/book/default/chapter/03&#x27;), (&lt;lazyT &#x27;The Core&#x27;&gt;, False, &#x27;http://www.web2py.com/book/default/chapter/04&#x27;), (&lt;lazyT &#x27;The Views&#x27;&gt;, False, &#x27;http://www.web2py.com/book/default/chapter/05&#x27;), (&lt;lazyT &#x27;Database&#x27;&gt;, False, &#x27;http://www.web2py.com/book/default/chapter/06&#x27;), (&lt;lazyT &#x27;Forms and Validators&#x27;&gt;, False, &#x27;http://www.web2py.com/book/default/chapter/07&#x27;), (&lt;lazyT &#x27;Email and SMS&#x27;&gt;, False, &#x27;http://www.web2py.com/book/default/chapter/08&#x27;), (&lt;lazyT &#x27;Access Control&#x27;&gt;, False, &#x27;http://www.web2py.com/book/default/chapter/09&#x27;), (&lt;lazyT &#x27;Services&#x27;&gt;, False, &#x27;http://www.web2py.com/book/default/chapter/10&#x27;), (&lt;lazyT &#x27;Ajax Recipes&#x27;&gt;, False, &#x27;http://www.web2py.com/book/default/chapter/11&#x27;), (&lt;lazyT &#x27;Components and Plugins&#x27;&gt;, False, &#x27;http://www.web2py.com/book/default/chapter/12&#x27;), (&lt;lazyT &#x27;Deployment Recipes&#x27;&gt;, False, &#x27;http://www.web2py.com/book/default/chapter/13&#x27;), (&lt;lazyT &#x27;Other Recipes&#x27;&gt;, False, &#x27;http://www.web2py.com/book/default/chapter/14&#x27;), (&lt;lazyT &#x27;Buy this book&#x27;&gt;, False, &#x27;http://stores.lulu.com/web2py&#x27;)]</div></td></tr></table></div></td></tr><tr><td><div><table><tr><td><div>Community</div></td></tr><tr><td><div>False</div></td></tr><tr><td><div>None</div></td></tr><tr><td><div>[(&lt;lazyT &#x27;Groups&#x27;&gt;, False, &#x27;http://www.web2py.com/examples/default/usergroups&#x27;), (&lt;lazyT &#x27;Twitter&#x27;&gt;, False, &#x27;http://twitter.com/web2py&#x27;), (&lt;lazyT &#x27;Live Chat&#x27;&gt;, False, &#x27;http://webchat.freenode.net/?channels=web2py&#x27;)]</div></td></tr></table></div></td></tr><tr><td><div><table><tr><td><div>Plugins</div></td></tr><tr><td><div>False</div></td></tr><tr><td><div>None</div></td></tr><tr><td><div>[(&#x27;plugin_wiki&#x27;, False, &#x27;http://web2py.com/examples/default/download&#x27;), (&lt;lazyT &#x27;Other Plugins&#x27;&gt;, False, &#x27;http://web2py.com/plugins&#x27;), (&lt;lazyT &#x27;Layout Plugins&#x27;&gt;, False, &#x27;http://web2py.com/layouts&#x27;)]</div></td></tr></table></div></td></tr></table></div></td></tr></table></div></td></tr></table></div></td></tr><tr><td style="font-weight:bold;vertical-align:top;">meta</td><td style="vertical-align:top;">:</td><td><div><table><tr><td style="font-weight:bold;vertical-align:top;">author</td><td style="vertical-align:top;">:</td><td><div>Your Name &lt;you@example.com&gt;</div></td></tr><tr><td style="font-weight:bold;vertical-align:top;">generator</td><td style="vertical-align:top;">:</td><td><div>Web2py Web Framework</div></td></tr><tr><td style="font-weight:bold;vertical-align:top;">keywords</td><td style="vertical-align:top;">:</td><td><div>web2py, python, framework</div></td></tr></table></div></td></tr><tr><td style="font-weight:bold;vertical-align:top;">models_to_run</td><td style="vertical-align:top;">:</td><td><div><table><tr><td><div>^\\w+\\.py$</div></td></tr><tr><td><div>^default/\\w+\\.py$</div></td></tr><tr><td><div>^default/tela_vendedor/\\w+\\.py$</div></td></tr></table></div></td></tr><tr><td style="font-weight:bold;vertical-align:top;">postprocessing</td><td style="vertical-align:top;">:</td><td><div><table></table></div></td></tr><tr><td style="font-weight:bold;vertical-align:top;">session_client</td><td style="vertical-align:top;">:</td><td><div>201.83.52.183</div></td></tr><tr><td style="font-weight:bold;vertical-align:top;">session_cookie_compression_level</td><td style="vertical-align:top;">:</td><td><div>None</div></td></tr><tr><td style="font-weight:bold;vertical-align:top;">session_cookie_expires</td><td style="vertical-align:top;">:</td><td><div>None</div></td></tr><tr><td style="font-weight:bold;vertical-align:top;">session_cookie_key</td><td style="vertical-align:top;">:</td><td><div>None</div></td></tr><tr><td style="font-weight:bold;vertical-align:top;">session_data_name</td><td style="vertical-align:top;">:</td><td><div>session_data_easypay</div></td></tr><tr><td style="font-weight:bold;vertical-align:top;">session_file</td><td style="vertical-align:top;">:</td><td><div>&lt;open file &#x27;/home/www-data/web2py/applications/easypay/sessions/0be/0f9/201.83.52.183-698e8cae-5d42-4b9f-ad62-ea25ce44844e&#x27;, mode &#x27;rb+&#x27; at 0x7f8e00deaed0&gt;</div></td></tr><tr><td style="font-weight:bold;vertical-align:top;">session_filename</td><td style="vertical-align:top;">:</td><td><div>/home/www-data/web2py/applications/easypay/sessions/201.83.52.183-698e8cae-5d42-4b9f-ad62-ea25ce44844e</div></td></tr><tr><td style="font-weight:bold;vertical-align:top;">session_hash</td><td style="vertical-align:top;">:</td><td><div>d6009a5147e592b89c69ccdac8118438</div></td></tr><tr><td style="font-weight:bold;vertical-align:top;">session_id</td><td style="vertical-align:top;">:</td><td><div>201.83.52.183-698e8cae-5d42-4b9f-ad62-ea25ce44844e</div></td></tr><tr><td style="font-weight:bold;vertical-align:top;">session_id_name</td><td style="vertical-align:top;">:</td><td><div>session_id_easypay</div></td></tr><tr><td style="font-weight:bold;vertical-align:top;">session_locked</td><td style="vertical-align:top;">:</td><td><div>True</div></td></tr><tr><td style="font-weight:bold;vertical-align:top;">session_masterapp</td><td style="vertical-align:top;">:</td><td><div>easypay</div></td></tr><tr><td style="font-weight:bold;vertical-align:top;">session_new</td><td style="vertical-align:top;">:</td><td><div>False</div></td></tr><tr><td style="font-weight:bold;vertical-align:top;">session_storage_type</td><td style="vertical-align:top;">:</td><td><div>file</div></td></tr><tr><td style="font-weight:bold;vertical-align:top;">status</td><td style="vertical-align:top;">:</td><td><div>200</div></td></tr><tr><td style="font-weight:bold;vertical-align:top;">subtitle</td><td style="vertical-align:top;">:</td><td><div></div></td></tr><tr><td style="font-weight:bold;vertical-align:top;">title</td><td style="vertical-align:top;">:</td><td><div>Easypay</div></td></tr><tr><td style="font-weight:bold;vertical-align:top;">view</td><td style="vertical-align:top;">:</td><td><div>default/tela_vendedor.html</div></td></tr></table></div>'
tRp304
sS'locals'
p305
(dp306
S'proxies'
p307
S'OrderedDict()'
p308
sS'e'
S'MaxRetryError("HTTPSConnectionPool(host=\'rcsousa...connection: [Errno 111] Connection refused\',))",)'
p309
sS'stream'
p310
S'False'
p311
sS'url'
p312
S"'/_session'"
p313
sS'verify'
p314
S'True'
p315
sS'self'
p316
S'<requests.adapters.HTTPAdapter object>'
p317
sg58
S'<PreparedRequest [POST]>'
p318
sS'cert'
p319
S'None'
p320
sS'timeout'
p321
S'<requests.packages.urllib3.util.timeout.Timeout object>'
p322
sS'chunked'
p323
g311
sS'conn'
p324
S'<requests.packages.urllib3.connectionpool.HTTPSConnectionPool object>'
p325
sssS'traceback'
p326
S'Traceback (most recent call last):\n  File "/home/www-data/web2py/gluon/restricted.py", line 224, in restricted\n    exec ccode in environment\n  File "/home/www-data/web2py/applications/easypay/controllers/default.py", line 139, in <module>\n  File "/home/www-data/web2py/gluon/globals.py", line 393, in <lambda>\n    self._caller = lambda f: f()\n  File "/home/www-data/web2py/gluon/tools.py", line 3444, in f\n    return action(*a, **b)\n  File "/home/www-data/web2py/applications/easypay/controllers/default.py", line 30, in tela_vendedor\n    client.connect()\n  File "/usr/local/lib/python2.7/dist-packages/cloudant/account.py", line 73, in connect\n    self.session_login(self._cloudant_user, self._cloudant_token)\n  File "/usr/local/lib/python2.7/dist-packages/cloudant/account.py", line 120, in session_login\n    headers={\'Content-Type\': \'application/x-www-form-urlencoded\'}\n  File "/usr/local/lib/python2.7/dist-packages/requests/sessions.py", line 511, in post\n    return self.request(\'POST\', url, data=data, json=json, **kwargs)\n  File "/usr/local/lib/python2.7/dist-packages/requests/sessions.py", line 468, in request\n    resp = self.send(prep, **send_kwargs)\n  File "/usr/local/lib/python2.7/dist-packages/requests/sessions.py", line 576, in send\n    r = adapter.send(request, **kwargs)\n  File "/usr/local/lib/python2.7/dist-packages/requests/adapters.py", line 437, in send\n    raise ConnectionError(e, request=request)\nConnectionError: HTTPSConnectionPool(host=\'rcsousa.cloudant.com\', port=443): Max retries exceeded with url: /_session (Caused by NewConnectionError(\'<requests.packages.urllib3.connection.VerifiedHTTPSConnection object at 0x7f8e01a979d0>: Failed to establish a new connection: [Errno 111] Connection refused\',))\n'
p327
s.